;--------------------------------------------------------
; File Created by SDCC : free open source ANSI-C Compiler
; Version 4.0.0 #11528 (MINGW64)
;--------------------------------------------------------
	.module main
	.optsdcc -mgbz80
	
;--------------------------------------------------------
; Public variables in this module
;--------------------------------------------------------
	.globl _main
	.globl _anim_walking_down
	.globl _anim_walking_up
	.globl _anim_walking_right
	.globl _anim_walking_left
	.globl _performantdelay
	.globl _move_sprite
	.globl _get_sprite_prop
	.globl _set_sprite_prop
	.globl _set_sprite_tile
	.globl _set_sprite_data
	.globl _scroll_bkg
	.globl _set_bkg_tiles
	.globl _set_bkg_data
	.globl _wait_vbl_done
	.globl _enable_interrupts
	.globl _joypad
	.globl _counterY
	.globl _counterX
	.globl _tempY
	.globl _tempX
	.globl _i
	.globl _tileCounterY
	.globl _tileCounterX
	.globl _scrollY
	.globl _scrollX
	.globl _direction
	.globl _flip
	.globl _gamerunning
	.globl _playerlocation
	.globl _blankmap
	.globl _Sprites
	.globl _BackgroundMap3
	.globl _BackgroundTiles
;--------------------------------------------------------
; special function registers
;--------------------------------------------------------
;--------------------------------------------------------
; ram data
;--------------------------------------------------------
	.area _DATA
_playerlocation::
	.ds 4
_gamerunning::
	.ds 1
_flip::
	.ds 1
_direction::
	.ds 1
_scrollX::
	.ds 2
_scrollY::
	.ds 2
_tileCounterX::
	.ds 1
_tileCounterY::
	.ds 1
_i::
	.ds 1
_tempX::
	.ds 1
_tempY::
	.ds 1
_counterX::
	.ds 2
_counterY::
	.ds 2
;--------------------------------------------------------
; absolute external ram data
;--------------------------------------------------------
	.area _DABS (ABS)
;--------------------------------------------------------
; global & static initialisations
;--------------------------------------------------------
	.area _HOME
	.area _GSINIT
	.area _GSFINAL
	.area _GSINIT
;main.c:10: UINT8 flip = 0;
	ld	hl, #_flip
	ld	(hl), #0x00
;main.c:11: UBYTE direction = 0;
	ld	hl, #_direction
	ld	(hl), #0x00
;main.c:15: UWORD scrollX = 0;   // UBYTE
	ld	hl, #_scrollX
	ld	(hl), #0x00
	inc	hl
	ld	(hl), #0x00
;main.c:16: UWORD scrollY = 0;   // UBYTE
	ld	hl, #_scrollY
	ld	(hl), #0x00
	inc	hl
	ld	(hl), #0x00
;main.c:17: BYTE tileCounterX = 0 ;
	ld	hl, #_tileCounterX
	ld	(hl), #0x00
;main.c:18: BYTE tileCounterY = 0 ; 
	ld	hl, #_tileCounterY
	ld	(hl), #0x00
;main.c:19: UBYTE i = 0;
	ld	hl, #_i
	ld	(hl), #0x00
;main.c:20: UBYTE tempX = 0;
	ld	hl, #_tempX
	ld	(hl), #0x00
;main.c:21: UBYTE tempY = 0;
	ld	hl, #_tempY
	ld	(hl), #0x00
;main.c:22: UWORD counterX = 0;
	ld	hl, #_counterX
	ld	(hl), #0x00
	inc	hl
	ld	(hl), #0x00
;main.c:23: UWORD counterY = 0;
	ld	hl, #_counterY
	ld	(hl), #0x00
	inc	hl
	ld	(hl), #0x00
;--------------------------------------------------------
; Home
;--------------------------------------------------------
	.area _HOME
	.area _HOME
;--------------------------------------------------------
; code
;--------------------------------------------------------
	.area _CODE
;main.c:29: void performantdelay(UINT8 numloops){
;	---------------------------------
; Function performantdelay
; ---------------------------------
_performantdelay::
;main.c:31: for(i = 0; i < numloops; i++){
	ld	c, #0x00
00103$:
	ld	a, c
	ldhl	sp,	#2
	sub	a, (hl)
	ret	NC
;main.c:32: wait_vbl_done();
	push	bc
	call	_wait_vbl_done
	pop	bc
;main.c:31: for(i = 0; i < numloops; i++){
	inc	c
	jr	00103$
;main.c:34: }
	ret
_BackgroundTiles:
	.db #0x00	; 0
	.db #0x00	; 0
	.db #0x00	; 0
	.db #0x00	; 0
	.db #0x00	; 0
	.db #0x00	; 0
	.db #0x00	; 0
	.db #0x00	; 0
	.db #0x00	; 0
	.db #0x00	; 0
	.db #0x00	; 0
	.db #0x00	; 0
	.db #0x00	; 0
	.db #0x00	; 0
	.db #0x00	; 0
	.db #0x00	; 0
	.db #0xff	; 255
	.db #0xff	; 255
	.db #0xf7	; 247
	.db #0xc8	; 200
	.db #0xe0	; 224
	.db #0x88	; 136
	.db #0xdf	; 223
	.db #0x8f	; 143
	.db #0x9f	; 159
	.db #0xf4	; 244
	.db #0xde	; 222
	.db #0x9b	; 155
	.db #0xdf	; 223
	.db #0x95	; 149
	.db #0xdf	; 223
	.db #0x9e	; 158
	.db #0xdf	; 223
	.db #0x93	; 147
	.db #0xda	; 218
	.db #0x97	; 151
	.db #0xda	; 218
	.db #0x97	; 151
	.db #0xdb	; 219
	.db #0x97	; 151
	.db #0xdb	; 219
	.db #0x96	; 150
	.db #0xdb	; 219
	.db #0x96	; 150
	.db #0xdf	; 223
	.db #0x92	; 146
	.db #0x9f	; 159
	.db #0xfe	; 254
	.db #0xdf	; 223
	.db #0x92	; 146
	.db #0xdb	; 219
	.db #0x96	; 150
	.db #0xdb	; 219
	.db #0x96	; 150
	.db #0xdb	; 219
	.db #0x97	; 151
	.db #0xdb	; 219
	.db #0x96	; 150
	.db #0xdb	; 219
	.db #0x96	; 150
	.db #0xdf	; 223
	.db #0x92	; 146
	.db #0xdf	; 223
	.db #0x9e	; 158
	.db #0xdf	; 223
	.db #0x92	; 146
	.db #0xdb	; 219
	.db #0x96	; 150
	.db #0xdb	; 219
	.db #0x96	; 150
	.db #0xdb	; 219
	.db #0x97	; 151
	.db #0xdb	; 219
	.db #0x96	; 150
	.db #0xdb	; 219
	.db #0x96	; 150
	.db #0xdf	; 223
	.db #0x92	; 146
	.db #0x9f	; 159
	.db #0xfe	; 254
	.db #0xdf	; 223
	.db #0x92	; 146
	.db #0xdb	; 219
	.db #0x96	; 150
	.db #0xdb	; 219
	.db #0x96	; 150
	.db #0xdb	; 219
	.db #0x97	; 151
	.db #0xdb	; 219
	.db #0x96	; 150
	.db #0xdb	; 219
	.db #0x96	; 150
	.db #0xdf	; 223
	.db #0x92	; 146
	.db #0xdf	; 223
	.db #0x9f	; 159
	.db #0xdb	; 219
	.db #0x96	; 150
	.db #0xdf	; 223
	.db #0x95	; 149
	.db #0xdf	; 223
	.db #0x9b	; 155
	.db #0x9f	; 159
	.db #0xf5	; 245
	.db #0xdf	; 223
	.db #0x8f	; 143
	.db #0xe0	; 224
	.db #0x88	; 136
	.db #0xf7	; 247
	.db #0xc8	; 200
	.db #0xff	; 255
	.db #0xff	; 255
	.db #0xff	; 255
	.db #0xff	; 255
	.db #0xff	; 255
	.db #0x00	; 0
	.db #0x00	; 0
	.db #0x00	; 0
	.db #0xff	; 255
	.db #0xff	; 255
	.db #0xff	; 255
	.db #0x80	; 128
	.db #0xc1	; 193
	.db #0xbe	; 190
	.db #0xff	; 255
	.db #0xff	; 255
	.db #0xff	; 255
	.db #0x88	; 136
	.db #0xdc	; 220
	.db #0x6b	; 107	'k'
	.db #0xff	; 255
	.db #0xbf	; 191
	.db #0x77	; 119	'w'
	.db #0xd8	; 216
	.db #0xf9	; 249
	.db #0xee	; 238
	.db #0xdd	; 221
	.db #0x76	; 118	'v'
	.db #0x6f	; 111	'o'
	.db #0xdb	; 219
	.db #0x77	; 119	'w'
	.db #0xcc	; 204
	.db #0x7f	; 127
	.db #0xfd	; 253
	.db #0x7f	; 127
	.db #0xc5	; 197
	.db #0x67	; 103	'g'
	.db #0xdd	; 221
	.db #0xe7	; 231
	.db #0x5d	; 93
	.db #0xe7	; 231
	.db #0xdd	; 221
	.db #0xe7	; 231
	.db #0x5d	; 93
	.db #0x67	; 103	'g'
	.db #0xdd	; 221
	.db #0x77	; 119	'w'
	.db #0xcd	; 205
	.db #0x7f	; 127
	.db #0xfd	; 253
	.db #0x7f	; 127
	.db #0xc5	; 197
	.db #0x67	; 103	'g'
	.db #0xdd	; 221
	.db #0xe7	; 231
	.db #0x5d	; 93
	.db #0xe7	; 231
	.db #0xdd	; 221
	.db #0xe7	; 231
	.db #0x5d	; 93
	.db #0x67	; 103	'g'
	.db #0xdd	; 221
	.db #0x77	; 119	'w'
	.db #0xcd	; 205
	.db #0x7f	; 127
	.db #0xfd	; 253
	.db #0x7f	; 127
	.db #0xc5	; 197
	.db #0x67	; 103	'g'
	.db #0xdc	; 220
	.db #0xef	; 239
	.db #0x5b	; 91
	.db #0xdc	; 220
	.db #0xf7	; 247
	.db #0xfb	; 251
	.db #0x6c	; 108	'l'
	.db #0xf7	; 247
	.db #0x58	; 88	'X'
	.db #0xff	; 255
	.db #0xbf	; 191
	.db #0xd8	; 216
	.db #0x77	; 119	'w'
	.db #0x9f	; 159
	.db #0xf0	; 240
	.db #0xff	; 255
	.db #0xff	; 255
	.db #0x81	; 129
	.db #0x7e	; 126
	.db #0xff	; 255
	.db #0x00	; 0
	.db #0xff	; 255
	.db #0xff	; 255
	.db #0x00	; 0
	.db #0x00	; 0
	.db #0xff	; 255
	.db #0x00	; 0
	.db #0xff	; 255
	.db #0xff	; 255
	.db #0xff	; 255
	.db #0xff	; 255
	.db #0x7f	; 127
	.db #0x80	; 128
	.db #0x00	; 0
	.db #0x80	; 128
	.db #0xff	; 255
	.db #0xff	; 255
	.db #0xff	; 255
	.db #0x80	; 128
	.db #0xc1	; 193
	.db #0xbe	; 190
	.db #0xff	; 255
	.db #0xff	; 255
	.db #0xff	; 255
	.db #0x08	; 8
	.db #0x1c	; 28
	.db #0xeb	; 235
	.db #0xff	; 255
	.db #0xff	; 255
	.db #0xff	; 255
	.db #0x80	; 128
	.db #0xc1	; 193
	.db #0xbe	; 190
	.db #0x81	; 129
	.db #0xfe	; 254
	.db #0xff	; 255
	.db #0xff	; 255
	.db #0xff	; 255
	.db #0x00	; 0
	.db #0xff	; 255
	.db #0xff	; 255
	.db #0xff	; 255
	.db #0xff	; 255
	.db #0xff	; 255
	.db #0x00	; 0
	.db #0x00	; 0
	.db #0x00	; 0
	.db #0xff	; 255
	.db #0xff	; 255
	.db #0xff	; 255
	.db #0x80	; 128
	.db #0xc1	; 193
	.db #0xbe	; 190
	.db #0xff	; 255
	.db #0xff	; 255
	.db #0xff	; 255
	.db #0x08	; 8
	.db #0x1c	; 28
	.db #0xeb	; 235
	.db #0xff	; 255
	.db #0xff	; 255
	.db #0xff	; 255
	.db #0x80	; 128
	.db #0xc1	; 193
	.db #0xbe	; 190
	.db #0x81	; 129
	.db #0xfe	; 254
	.db #0xff	; 255
	.db #0xff	; 255
	.db #0xff	; 255
	.db #0x00	; 0
	.db #0xff	; 255
	.db #0xff	; 255
	.db #0xff	; 255
	.db #0xff	; 255
	.db #0x7f	; 127
	.db #0x80	; 128
	.db #0x00	; 0
	.db #0x80	; 128
	.db #0xff	; 255
	.db #0xff	; 255
	.db #0xff	; 255
	.db #0x81	; 129
	.db #0xc3	; 195
	.db #0xbd	; 189
	.db #0xff	; 255
	.db #0xff	; 255
	.db #0xff	; 255
	.db #0x11	; 17
	.db #0xff	; 255
	.db #0xff	; 255
	.db #0xef	; 239
	.db #0x13	; 19
	.db #0x07	; 7
	.db #0x11	; 17
	.db #0xfb	; 251
	.db #0xf1	; 241
	.db #0xf9	; 249
	.db #0x2f	; 47
	.db #0x7b	; 123
	.db #0xd9	; 217
	.db #0xfb	; 251
	.db #0xa9	; 169
	.db #0xfb	; 251
	.db #0x79	; 121	'y'
	.db #0x3b	; 59
	.db #0xd6	; 214
	.db #0xff	; 255
	.db #0xfd	; 253
	.db #0xee	; 238
	.db #0x1b	; 27
	.db #0x9f	; 159
	.db #0x77	; 119	'w'
	.db #0xbb	; 187
	.db #0x6e	; 110	'n'
	.db #0xf6	; 246
	.db #0xdb	; 219
	.db #0xee	; 238
	.db #0x33	; 51	'3'
	.db #0xfe	; 254
	.db #0xbf	; 191
	.db #0xfb	; 251
	.db #0xc9	; 201
	.db #0x5b	; 91
	.db #0xe9	; 233
	.db #0x5b	; 91
	.db #0xe9	; 233
	.db #0xdb	; 219
	.db #0xe9	; 233
	.db #0xdb	; 219
	.db #0x69	; 105	'i'
	.db #0xdb	; 219
	.db #0x69	; 105	'i'
	.db #0xfb	; 251
	.db #0x49	; 73	'I'
	.db #0xf9	; 249
	.db #0x7f	; 127
	.db #0xee	; 238
	.db #0xb3	; 179
	.db #0xe6	; 230
	.db #0xbb	; 187
	.db #0xe7	; 231
	.db #0xba	; 186
	.db #0xe7	; 231
	.db #0xbb	; 187
	.db #0xe7	; 231
	.db #0xba	; 186
	.db #0xe6	; 230
	.db #0xbb	; 187
	.db #0xfe	; 254
	.db #0xa3	; 163
	.db #0xfe	; 254
	.db #0xbf	; 191
	.db #0xee	; 238
	.db #0xb3	; 179
	.db #0xe6	; 230
	.db #0xbb	; 187
	.db #0xe7	; 231
	.db #0xba	; 186
	.db #0xe7	; 231
	.db #0xbb	; 187
	.db #0xe7	; 231
	.db #0xba	; 186
	.db #0xe6	; 230
	.db #0xbb	; 187
	.db #0xfe	; 254
	.db #0xa3	; 163
	.db #0xfe	; 254
	.db #0xbf	; 191
	.db #0xfb	; 251
	.db #0x49	; 73	'I'
	.db #0xdb	; 219
	.db #0x69	; 105	'i'
	.db #0xdb	; 219
	.db #0x69	; 105	'i'
	.db #0xdb	; 219
	.db #0xe9	; 233
	.db #0xdb	; 219
	.db #0x69	; 105	'i'
	.db #0xdb	; 219
	.db #0x69	; 105	'i'
	.db #0xfb	; 251
	.db #0x49	; 73	'I'
	.db #0xfb	; 251
	.db #0x79	; 121	'y'
	.db #0xfb	; 251
	.db #0x49	; 73	'I'
	.db #0xdb	; 219
	.db #0x69	; 105	'i'
	.db #0xdb	; 219
	.db #0x69	; 105	'i'
	.db #0xdb	; 219
	.db #0xe9	; 233
	.db #0xdb	; 219
	.db #0x69	; 105	'i'
	.db #0xdb	; 219
	.db #0x69	; 105	'i'
	.db #0xfb	; 251
	.db #0x49	; 73	'I'
	.db #0xf9	; 249
	.db #0x7f	; 127
	.db #0xfe	; 254
	.db #0xa3	; 163
	.db #0xe6	; 230
	.db #0x3b	; 59
	.db #0xf7	; 247
	.db #0xda	; 218
	.db #0xbb	; 187
	.db #0xef	; 239
	.db #0xdf	; 223
	.db #0xb6	; 182
	.db #0xef	; 239
	.db #0x9a	; 154
	.db #0xff	; 255
	.db #0xfd	; 253
	.db #0x1b	; 27
	.db #0xee	; 238
	.db #0xfb	; 251
	.db #0x49	; 73	'I'
	.db #0xdb	; 219
	.db #0x69	; 105	'i'
	.db #0xdb	; 219
	.db #0x69	; 105	'i'
	.db #0xdb	; 219
	.db #0xe9	; 233
	.db #0xdb	; 219
	.db #0x69	; 105	'i'
	.db #0xdb	; 219
	.db #0x69	; 105	'i'
	.db #0xfb	; 251
	.db #0x49	; 73	'I'
	.db #0xfb	; 251
	.db #0xf9	; 249
	.db #0xf9	; 249
	.db #0x0f	; 15
	.db #0xff	; 255
	.db #0xff	; 255
	.db #0xc1	; 193
	.db #0xbe	; 190
	.db #0xff	; 255
	.db #0x80	; 128
	.db #0xff	; 255
	.db #0xff	; 255
	.db #0x00	; 0
	.db #0x80	; 128
	.db #0x7f	; 127
	.db #0x80	; 128
	.db #0xff	; 255
	.db #0xff	; 255
	.db #0xdb	; 219
	.db #0x69	; 105	'i'
	.db #0xfb	; 251
	.db #0xa9	; 169
	.db #0xfb	; 251
	.db #0xd9	; 217
	.db #0xf9	; 249
	.db #0xaf	; 175
	.db #0xfb	; 251
	.db #0xf1	; 241
	.db #0x07	; 7
	.db #0x11	; 17
	.db #0xef	; 239
	.db #0x13	; 19
	.db #0xff	; 255
	.db #0xff	; 255
	.db #0xff	; 255
	.db #0xff	; 255
	.db #0xff	; 255
	.db #0x00	; 0
	.db #0xff	; 255
	.db #0xff	; 255
	.db #0xc0	; 192
	.db #0xbf	; 191
	.db #0xc1	; 193
	.db #0xbe	; 190
	.db #0xff	; 255
	.db #0x80	; 128
	.db #0xff	; 255
	.db #0xff	; 255
	.db #0x1c	; 28
	.db #0xeb	; 235
	.db #0xff	; 255
	.db #0x08	; 8
	.db #0xff	; 255
	.db #0xff	; 255
	.db #0xc1	; 193
	.db #0xbe	; 190
	.db #0xff	; 255
	.db #0x80	; 128
	.db #0xff	; 255
	.db #0xff	; 255
	.db #0x00	; 0
	.db #0x80	; 128
	.db #0x7f	; 127
	.db #0x80	; 128
	.db #0xff	; 255
	.db #0xff	; 255
	.db #0xff	; 255
	.db #0xff	; 255
	.db #0xff	; 255
	.db #0x00	; 0
	.db #0xff	; 255
	.db #0xff	; 255
	.db #0xc0	; 192
	.db #0xbf	; 191
	.db #0xc1	; 193
	.db #0xbe	; 190
	.db #0xff	; 255
	.db #0x80	; 128
	.db #0xff	; 255
	.db #0xff	; 255
	.db #0x1c	; 28
	.db #0xeb	; 235
	.db #0xff	; 255
	.db #0x08	; 8
	.db #0xff	; 255
	.db #0xff	; 255
	.db #0xc1	; 193
	.db #0xbe	; 190
	.db #0xff	; 255
	.db #0x80	; 128
	.db #0xff	; 255
	.db #0xff	; 255
	.db #0x00	; 0
	.db #0x00	; 0
	.db #0xff	; 255
	.db #0x00	; 0
	.db #0xff	; 255
	.db #0xff	; 255
	.db #0xc3	; 195
	.db #0xbb	; 187
	.db #0xc1	; 193
	.db #0xb9	; 185
	.db #0xc1	; 193
	.db #0xbd	; 189
	.db #0xcd	; 205
	.db #0xbd	; 189
	.db #0xf0	; 240
	.db #0xb0	; 176
	.db #0xcf	; 207
	.db #0x80	; 128
	.db #0xff	; 255
	.db #0x8f	; 143
	.db #0xff	; 255
	.db #0xff	; 255
	.db #0xc3	; 195
	.db #0xdd	; 221
	.db #0x83	; 131
	.db #0x9d	; 157
	.db #0x83	; 131
	.db #0xbd	; 189
	.db #0xb3	; 179
	.db #0xbd	; 189
	.db #0x0f	; 15
	.db #0x0d	; 13
	.db #0xf3	; 243
	.db #0x01	; 1
	.db #0xff	; 255
	.db #0xf1	; 241
	.db #0xff	; 255
	.db #0xff	; 255
	.db #0xff	; 255
	.db #0xff	; 255
	.db #0x80	; 128
	.db #0x80	; 128
	.db #0xff	; 255
	.db #0x80	; 128
	.db #0xe0	; 224
	.db #0x9f	; 159
	.db #0xc0	; 192
	.db #0xbf	; 191
	.db #0xc0	; 192
	.db #0xbf	; 191
	.db #0xc0	; 192
	.db #0xbc	; 188
	.db #0xc3	; 195
	.db #0xbb	; 187
	.db #0xff	; 255
	.db #0xff	; 255
	.db #0x01	; 1
	.db #0x01	; 1
	.db #0xff	; 255
	.db #0x01	; 1
	.db #0x07	; 7
	.db #0xf9	; 249
	.db #0x03	; 3
	.db #0xfd	; 253
	.db #0x03	; 3
	.db #0xfd	; 253
	.db #0x03	; 3
	.db #0x3d	; 61
	.db #0xc3	; 195
	.db #0xdd	; 221
	.db #0xc3	; 195
	.db #0xbb	; 187
	.db #0xc0	; 192
	.db #0xbc	; 188
	.db #0xc0	; 192
	.db #0xbf	; 191
	.db #0xc0	; 192
	.db #0xbf	; 191
	.db #0xe0	; 224
	.db #0x9f	; 159
	.db #0xff	; 255
	.db #0x80	; 128
	.db #0x80	; 128
	.db #0x80	; 128
	.db #0xff	; 255
	.db #0xff	; 255
	.db #0xc3	; 195
	.db #0xdd	; 221
	.db #0x03	; 3
	.db #0x3d	; 61
	.db #0x03	; 3
	.db #0xfd	; 253
	.db #0x03	; 3
	.db #0xfd	; 253
	.db #0x07	; 7
	.db #0xf9	; 249
	.db #0xff	; 255
	.db #0x01	; 1
	.db #0x01	; 1
	.db #0x01	; 1
	.db #0xff	; 255
	.db #0xff	; 255
	.db #0xff	; 255
	.db #0xff	; 255
	.db #0xff	; 255
	.db #0x01	; 1
	.db #0xff	; 255
	.db #0xff	; 255
	.db #0xc1	; 193
	.db #0xbf	; 191
	.db #0xc1	; 193
	.db #0xbf	; 191
	.db #0xff	; 255
	.db #0x81	; 129
	.db #0xff	; 255
	.db #0xff	; 255
	.db #0x1d	; 29
	.db #0xeb	; 235
	.db #0xff	; 255
	.db #0x09	; 9
	.db #0xff	; 255
	.db #0xff	; 255
	.db #0xc1	; 193
	.db #0xbf	; 191
	.db #0xff	; 255
	.db #0x81	; 129
	.db #0xff	; 255
	.db #0xff	; 255
	.db #0x01	; 1
	.db #0x81	; 129
	.db #0x7f	; 127
	.db #0x81	; 129
	.db #0xff	; 255
	.db #0xff	; 255
	.db #0xff	; 255
	.db #0xff	; 255
	.db #0xff	; 255
	.db #0x80	; 128
	.db #0xff	; 255
	.db #0xff	; 255
	.db #0xc0	; 192
	.db #0xbf	; 191
	.db #0xc1	; 193
	.db #0xbe	; 190
	.db #0xff	; 255
	.db #0x80	; 128
	.db #0xff	; 255
	.db #0xff	; 255
	.db #0x9c	; 156
	.db #0xeb	; 235
	.db #0xff	; 255
	.db #0x88	; 136
	.db #0xff	; 255
	.db #0xff	; 255
	.db #0xc1	; 193
	.db #0xbe	; 190
	.db #0xff	; 255
	.db #0x80	; 128
	.db #0xff	; 255
	.db #0xff	; 255
	.db #0x80	; 128
	.db #0x80	; 128
	.db #0xff	; 255
	.db #0x80	; 128
	.db #0xff	; 255
	.db #0xff	; 255
	.db #0xff	; 255
	.db #0xff	; 255
	.db #0x7f	; 127
	.db #0x81	; 129
	.db #0x01	; 1
	.db #0x81	; 129
	.db #0xff	; 255
	.db #0xff	; 255
	.db #0xff	; 255
	.db #0x81	; 129
	.db #0xc1	; 193
	.db #0xbf	; 191
	.db #0xff	; 255
	.db #0xff	; 255
	.db #0xff	; 255
	.db #0x09	; 9
	.db #0x1d	; 29
	.db #0xeb	; 235
	.db #0xff	; 255
	.db #0xff	; 255
	.db #0xff	; 255
	.db #0x81	; 129
	.db #0xc1	; 193
	.db #0xbf	; 191
	.db #0x81	; 129
	.db #0xff	; 255
	.db #0xff	; 255
	.db #0xff	; 255
	.db #0xff	; 255
	.db #0x01	; 1
	.db #0xff	; 255
	.db #0xff	; 255
	.db #0xff	; 255
	.db #0xff	; 255
	.db #0xff	; 255
	.db #0x80	; 128
	.db #0x80	; 128
	.db #0x80	; 128
	.db #0xff	; 255
	.db #0xff	; 255
	.db #0xff	; 255
	.db #0x80	; 128
	.db #0xc1	; 193
	.db #0xbe	; 190
	.db #0xff	; 255
	.db #0xff	; 255
	.db #0xff	; 255
	.db #0x88	; 136
	.db #0x9c	; 156
	.db #0xeb	; 235
	.db #0xff	; 255
	.db #0xff	; 255
	.db #0xff	; 255
	.db #0x80	; 128
	.db #0xc1	; 193
	.db #0xbe	; 190
	.db #0x81	; 129
	.db #0xfe	; 254
	.db #0xff	; 255
	.db #0xff	; 255
	.db #0xff	; 255
	.db #0x80	; 128
	.db #0xff	; 255
	.db #0xff	; 255
	.db #0xff	; 255
	.db #0xff	; 255
	.db #0xff	; 255
	.db #0x8f	; 143
	.db #0xcf	; 207
	.db #0x80	; 128
	.db #0xf0	; 240
	.db #0xb0	; 176
	.db #0xcd	; 205
	.db #0xbd	; 189
	.db #0xc1	; 193
	.db #0xbd	; 189
	.db #0xc1	; 193
	.db #0xb9	; 185
	.db #0xc3	; 195
	.db #0xbb	; 187
	.db #0xff	; 255
	.db #0xff	; 255
	.db #0xff	; 255
	.db #0xf1	; 241
	.db #0xf3	; 243
	.db #0x01	; 1
	.db #0x0f	; 15
	.db #0x0d	; 13
	.db #0xb3	; 179
	.db #0xbd	; 189
	.db #0x83	; 131
	.db #0xbd	; 189
	.db #0x83	; 131
	.db #0x9d	; 157
	.db #0xc3	; 195
	.db #0xdd	; 221
	.db #0x00	; 0
	.db #0x00	; 0
	.db #0x00	; 0
	.db #0x00	; 0
	.db #0x00	; 0
	.db #0x00	; 0
	.db #0x00	; 0
	.db #0x00	; 0
	.db #0xff	; 255
	.db #0xff	; 255
	.db #0x00	; 0
	.db #0x00	; 0
	.db #0xff	; 255
	.db #0x00	; 0
	.db #0xff	; 255
	.db #0xff	; 255
	.db #0xff	; 255
	.db #0xff	; 255
	.db #0x80	; 128
	.db #0x80	; 128
	.db #0xa0	; 160
	.db #0xbf	; 191
	.db #0xbf	; 191
	.db #0xa0	; 160
	.db #0xbf	; 191
	.db #0xa0	; 160
	.db #0xbf	; 191
	.db #0xa0	; 160
	.db #0xa0	; 160
	.db #0xbf	; 191
	.db #0xa0	; 160
	.db #0xbf	; 191
	.db #0x80	; 128
	.db #0x80	; 128
	.db #0xbd	; 189
	.db #0xbd	; 189
	.db #0xa0	; 160
	.db #0xbc	; 188
	.db #0xa0	; 160
	.db #0xbf	; 191
	.db #0xa0	; 160
	.db #0xbf	; 191
	.db #0xbf	; 191
	.db #0xbf	; 191
	.db #0x80	; 128
	.db #0x80	; 128
	.db #0xff	; 255
	.db #0xff	; 255
	.db #0xff	; 255
	.db #0xff	; 255
	.db #0x01	; 1
	.db #0x01	; 1
	.db #0x05	; 5
	.db #0xfd	; 253
	.db #0xfd	; 253
	.db #0x05	; 5
	.db #0xfd	; 253
	.db #0x05	; 5
	.db #0xfd	; 253
	.db #0x05	; 5
	.db #0x05	; 5
	.db #0xfd	; 253
	.db #0x05	; 5
	.db #0xfd	; 253
	.db #0x01	; 1
	.db #0x01	; 1
	.db #0xbd	; 189
	.db #0xbd	; 189
	.db #0x05	; 5
	.db #0x3d	; 61
	.db #0x05	; 5
	.db #0xfd	; 253
	.db #0x05	; 5
	.db #0xfd	; 253
	.db #0xfd	; 253
	.db #0xfd	; 253
	.db #0x01	; 1
	.db #0x01	; 1
	.db #0xff	; 255
	.db #0xff	; 255
	.db #0xff	; 255
	.db #0xff	; 255
	.db #0xff	; 255
	.db #0x80	; 128
	.db #0xd0	; 208
	.db #0x9f	; 159
	.db #0xd0	; 208
	.db #0x9f	; 159
	.db #0xe8	; 232
	.db #0xcf	; 207
	.db #0xe8	; 232
	.db #0xcc	; 204
	.db #0xe1	; 225
	.db #0xc1	; 193
	.db #0xef	; 239
	.db #0xcf	; 207
	.db #0xef	; 239
	.db #0xcf	; 207
	.db #0xe1	; 225
	.db #0xc1	; 193
	.db #0xe8	; 232
	.db #0xcc	; 204
	.db #0xe8	; 232
	.db #0xcf	; 207
	.db #0xd0	; 208
	.db #0x9f	; 159
	.db #0xd0	; 208
	.db #0x9f	; 159
	.db #0xff	; 255
	.db #0x80	; 128
	.db #0xff	; 255
	.db #0xff	; 255
	.db #0xff	; 255
	.db #0xff	; 255
	.db #0xfd	; 253
	.db #0x01	; 1
	.db #0x0d	; 13
	.db #0xf1	; 241
	.db #0x05	; 5
	.db #0xf9	; 249
	.db #0x05	; 5
	.db #0xf9	; 249
	.db #0x05	; 5
	.db #0x79	; 121	'y'
	.db #0x85	; 133
	.db #0xb9	; 185
	.db #0x85	; 133
	.db #0xb9	; 185
	.db #0x85	; 133
	.db #0xb9	; 185
	.db #0x85	; 133
	.db #0xb9	; 185
	.db #0x05	; 5
	.db #0x79	; 121	'y'
	.db #0x05	; 5
	.db #0xf9	; 249
	.db #0x05	; 5
	.db #0xf9	; 249
	.db #0x0d	; 13
	.db #0xf1	; 241
	.db #0xfd	; 253
	.db #0x01	; 1
	.db #0xff	; 255
	.db #0xff	; 255
	.db #0x00	; 0
	.db #0x00	; 0
	.db #0x3c	; 60
	.db #0x3c	; 60
	.db #0x42	; 66	'B'
	.db #0x42	; 66	'B'
	.db #0x42	; 66	'B'
	.db #0x42	; 66	'B'
	.db #0x7e	; 126
	.db #0x7e	; 126
	.db #0x42	; 66	'B'
	.db #0x42	; 66	'B'
	.db #0x42	; 66	'B'
	.db #0x42	; 66	'B'
	.db #0x00	; 0
	.db #0x00	; 0
	.db #0x00	; 0
	.db #0x00	; 0
	.db #0x7c	; 124
	.db #0x7c	; 124
	.db #0x42	; 66	'B'
	.db #0x42	; 66	'B'
	.db #0x7c	; 124
	.db #0x7c	; 124
	.db #0x42	; 66	'B'
	.db #0x42	; 66	'B'
	.db #0x42	; 66	'B'
	.db #0x42	; 66	'B'
	.db #0x7c	; 124
	.db #0x7c	; 124
	.db #0x00	; 0
	.db #0x00	; 0
	.db #0x00	; 0
	.db #0x00	; 0
	.db #0x3c	; 60
	.db #0x3c	; 60
	.db #0x42	; 66	'B'
	.db #0x42	; 66	'B'
	.db #0x40	; 64
	.db #0x40	; 64
	.db #0x40	; 64
	.db #0x40	; 64
	.db #0x42	; 66	'B'
	.db #0x42	; 66	'B'
	.db #0x3c	; 60
	.db #0x3c	; 60
	.db #0x00	; 0
	.db #0x00	; 0
	.db #0x00	; 0
	.db #0x00	; 0
	.db #0x78	; 120	'x'
	.db #0x78	; 120	'x'
	.db #0x44	; 68	'D'
	.db #0x44	; 68	'D'
	.db #0x42	; 66	'B'
	.db #0x42	; 66	'B'
	.db #0x42	; 66	'B'
	.db #0x42	; 66	'B'
	.db #0x44	; 68	'D'
	.db #0x44	; 68	'D'
	.db #0x78	; 120	'x'
	.db #0x78	; 120	'x'
	.db #0x00	; 0
	.db #0x00	; 0
	.db #0x00	; 0
	.db #0x00	; 0
	.db #0x7e	; 126
	.db #0x7e	; 126
	.db #0x40	; 64
	.db #0x40	; 64
	.db #0x7c	; 124
	.db #0x7c	; 124
	.db #0x40	; 64
	.db #0x40	; 64
	.db #0x40	; 64
	.db #0x40	; 64
	.db #0x7e	; 126
	.db #0x7e	; 126
	.db #0x00	; 0
	.db #0x00	; 0
	.db #0x00	; 0
	.db #0x00	; 0
	.db #0x7e	; 126
	.db #0x7e	; 126
	.db #0x40	; 64
	.db #0x40	; 64
	.db #0x7c	; 124
	.db #0x7c	; 124
	.db #0x40	; 64
	.db #0x40	; 64
	.db #0x40	; 64
	.db #0x40	; 64
	.db #0x40	; 64
	.db #0x40	; 64
	.db #0x00	; 0
	.db #0x00	; 0
	.db #0x00	; 0
	.db #0x00	; 0
	.db #0x3c	; 60
	.db #0x3c	; 60
	.db #0x42	; 66	'B'
	.db #0x42	; 66	'B'
	.db #0x40	; 64
	.db #0x40	; 64
	.db #0x4e	; 78	'N'
	.db #0x4e	; 78	'N'
	.db #0x42	; 66	'B'
	.db #0x42	; 66	'B'
	.db #0x3c	; 60
	.db #0x3c	; 60
	.db #0x00	; 0
	.db #0x00	; 0
	.db #0x00	; 0
	.db #0x00	; 0
	.db #0x42	; 66	'B'
	.db #0x42	; 66	'B'
	.db #0x42	; 66	'B'
	.db #0x42	; 66	'B'
	.db #0x7e	; 126
	.db #0x7e	; 126
	.db #0x42	; 66	'B'
	.db #0x42	; 66	'B'
	.db #0x42	; 66	'B'
	.db #0x42	; 66	'B'
	.db #0x42	; 66	'B'
	.db #0x42	; 66	'B'
	.db #0x00	; 0
	.db #0x00	; 0
	.db #0x00	; 0
	.db #0x00	; 0
	.db #0x3e	; 62
	.db #0x3e	; 62
	.db #0x08	; 8
	.db #0x08	; 8
	.db #0x08	; 8
	.db #0x08	; 8
	.db #0x08	; 8
	.db #0x08	; 8
	.db #0x08	; 8
	.db #0x08	; 8
	.db #0x3e	; 62
	.db #0x3e	; 62
	.db #0x00	; 0
	.db #0x00	; 0
	.db #0x00	; 0
	.db #0x00	; 0
	.db #0x02	; 2
	.db #0x02	; 2
	.db #0x02	; 2
	.db #0x02	; 2
	.db #0x02	; 2
	.db #0x02	; 2
	.db #0x42	; 66	'B'
	.db #0x42	; 66	'B'
	.db #0x42	; 66	'B'
	.db #0x42	; 66	'B'
	.db #0x3c	; 60
	.db #0x3c	; 60
	.db #0x00	; 0
	.db #0x00	; 0
	.db #0x00	; 0
	.db #0x00	; 0
	.db #0x44	; 68	'D'
	.db #0x44	; 68	'D'
	.db #0x48	; 72	'H'
	.db #0x48	; 72	'H'
	.db #0x70	; 112	'p'
	.db #0x70	; 112	'p'
	.db #0x48	; 72	'H'
	.db #0x48	; 72	'H'
	.db #0x44	; 68	'D'
	.db #0x44	; 68	'D'
	.db #0x42	; 66	'B'
	.db #0x42	; 66	'B'
	.db #0x00	; 0
	.db #0x00	; 0
	.db #0x00	; 0
	.db #0x00	; 0
	.db #0x40	; 64
	.db #0x40	; 64
	.db #0x40	; 64
	.db #0x40	; 64
	.db #0x40	; 64
	.db #0x40	; 64
	.db #0x40	; 64
	.db #0x40	; 64
	.db #0x40	; 64
	.db #0x40	; 64
	.db #0x7e	; 126
	.db #0x7e	; 126
	.db #0x00	; 0
	.db #0x00	; 0
	.db #0x00	; 0
	.db #0x00	; 0
	.db #0x42	; 66	'B'
	.db #0x42	; 66	'B'
	.db #0x66	; 102	'f'
	.db #0x66	; 102	'f'
	.db #0x5a	; 90	'Z'
	.db #0x5a	; 90	'Z'
	.db #0x42	; 66	'B'
	.db #0x42	; 66	'B'
	.db #0x42	; 66	'B'
	.db #0x42	; 66	'B'
	.db #0x42	; 66	'B'
	.db #0x42	; 66	'B'
	.db #0x00	; 0
	.db #0x00	; 0
	.db #0x00	; 0
	.db #0x00	; 0
	.db #0x42	; 66	'B'
	.db #0x42	; 66	'B'
	.db #0x62	; 98	'b'
	.db #0x62	; 98	'b'
	.db #0x52	; 82	'R'
	.db #0x52	; 82	'R'
	.db #0x4a	; 74	'J'
	.db #0x4a	; 74	'J'
	.db #0x46	; 70	'F'
	.db #0x46	; 70	'F'
	.db #0x42	; 66	'B'
	.db #0x42	; 66	'B'
	.db #0x00	; 0
	.db #0x00	; 0
	.db #0x00	; 0
	.db #0x00	; 0
	.db #0x3c	; 60
	.db #0x3c	; 60
	.db #0x42	; 66	'B'
	.db #0x42	; 66	'B'
	.db #0x42	; 66	'B'
	.db #0x42	; 66	'B'
	.db #0x42	; 66	'B'
	.db #0x42	; 66	'B'
	.db #0x42	; 66	'B'
	.db #0x42	; 66	'B'
	.db #0x3c	; 60
	.db #0x3c	; 60
	.db #0x00	; 0
	.db #0x00	; 0
	.db #0x00	; 0
	.db #0x00	; 0
	.db #0x7c	; 124
	.db #0x7c	; 124
	.db #0x42	; 66	'B'
	.db #0x42	; 66	'B'
	.db #0x42	; 66	'B'
	.db #0x42	; 66	'B'
	.db #0x7c	; 124
	.db #0x7c	; 124
	.db #0x40	; 64
	.db #0x40	; 64
	.db #0x40	; 64
	.db #0x40	; 64
	.db #0x00	; 0
	.db #0x00	; 0
	.db #0x00	; 0
	.db #0x00	; 0
	.db #0x3c	; 60
	.db #0x3c	; 60
	.db #0x42	; 66	'B'
	.db #0x42	; 66	'B'
	.db #0x42	; 66	'B'
	.db #0x42	; 66	'B'
	.db #0x52	; 82	'R'
	.db #0x52	; 82	'R'
	.db #0x4a	; 74	'J'
	.db #0x4a	; 74	'J'
	.db #0x3c	; 60
	.db #0x3c	; 60
	.db #0x00	; 0
	.db #0x00	; 0
	.db #0x00	; 0
	.db #0x00	; 0
	.db #0x7c	; 124
	.db #0x7c	; 124
	.db #0x42	; 66	'B'
	.db #0x42	; 66	'B'
	.db #0x42	; 66	'B'
	.db #0x42	; 66	'B'
	.db #0x7c	; 124
	.db #0x7c	; 124
	.db #0x44	; 68	'D'
	.db #0x44	; 68	'D'
	.db #0x42	; 66	'B'
	.db #0x42	; 66	'B'
	.db #0x00	; 0
	.db #0x00	; 0
	.db #0x00	; 0
	.db #0x00	; 0
	.db #0x3c	; 60
	.db #0x3c	; 60
	.db #0x40	; 64
	.db #0x40	; 64
	.db #0x3c	; 60
	.db #0x3c	; 60
	.db #0x02	; 2
	.db #0x02	; 2
	.db #0x42	; 66	'B'
	.db #0x42	; 66	'B'
	.db #0x3c	; 60
	.db #0x3c	; 60
	.db #0x00	; 0
	.db #0x00	; 0
	.db #0x00	; 0
	.db #0x00	; 0
	.db #0x7c	; 124
	.db #0x7c	; 124
	.db #0x10	; 16
	.db #0x10	; 16
	.db #0x10	; 16
	.db #0x10	; 16
	.db #0x10	; 16
	.db #0x10	; 16
	.db #0x10	; 16
	.db #0x10	; 16
	.db #0x10	; 16
	.db #0x10	; 16
	.db #0x00	; 0
	.db #0x00	; 0
	.db #0x00	; 0
	.db #0x00	; 0
	.db #0x42	; 66	'B'
	.db #0x42	; 66	'B'
	.db #0x42	; 66	'B'
	.db #0x42	; 66	'B'
	.db #0x42	; 66	'B'
	.db #0x42	; 66	'B'
	.db #0x42	; 66	'B'
	.db #0x42	; 66	'B'
	.db #0x42	; 66	'B'
	.db #0x42	; 66	'B'
	.db #0x3c	; 60
	.db #0x3c	; 60
	.db #0x00	; 0
	.db #0x00	; 0
	.db #0x00	; 0
	.db #0x00	; 0
	.db #0x42	; 66	'B'
	.db #0x42	; 66	'B'
	.db #0x42	; 66	'B'
	.db #0x42	; 66	'B'
	.db #0x42	; 66	'B'
	.db #0x42	; 66	'B'
	.db #0x42	; 66	'B'
	.db #0x42	; 66	'B'
	.db #0x24	; 36
	.db #0x24	; 36
	.db #0x18	; 24
	.db #0x18	; 24
	.db #0x00	; 0
	.db #0x00	; 0
	.db #0x00	; 0
	.db #0x00	; 0
	.db #0x42	; 66	'B'
	.db #0x42	; 66	'B'
	.db #0x42	; 66	'B'
	.db #0x42	; 66	'B'
	.db #0x42	; 66	'B'
	.db #0x42	; 66	'B'
	.db #0x42	; 66	'B'
	.db #0x42	; 66	'B'
	.db #0x5a	; 90	'Z'
	.db #0x5a	; 90	'Z'
	.db #0x24	; 36
	.db #0x24	; 36
	.db #0x00	; 0
	.db #0x00	; 0
	.db #0x00	; 0
	.db #0x00	; 0
	.db #0x42	; 66	'B'
	.db #0x42	; 66	'B'
	.db #0x24	; 36
	.db #0x24	; 36
	.db #0x18	; 24
	.db #0x18	; 24
	.db #0x18	; 24
	.db #0x18	; 24
	.db #0x24	; 36
	.db #0x24	; 36
	.db #0x42	; 66	'B'
	.db #0x42	; 66	'B'
	.db #0x00	; 0
	.db #0x00	; 0
	.db #0x00	; 0
	.db #0x00	; 0
	.db #0x82	; 130
	.db #0x82	; 130
	.db #0x44	; 68	'D'
	.db #0x44	; 68	'D'
	.db #0x28	; 40
	.db #0x28	; 40
	.db #0x10	; 16
	.db #0x10	; 16
	.db #0x10	; 16
	.db #0x10	; 16
	.db #0x10	; 16
	.db #0x10	; 16
	.db #0x00	; 0
	.db #0x00	; 0
	.db #0x00	; 0
	.db #0x00	; 0
	.db #0x7e	; 126
	.db #0x7e	; 126
	.db #0x04	; 4
	.db #0x04	; 4
	.db #0x08	; 8
	.db #0x08	; 8
	.db #0x10	; 16
	.db #0x10	; 16
	.db #0x20	; 32
	.db #0x20	; 32
	.db #0x7e	; 126
	.db #0x7e	; 126
	.db #0x00	; 0
	.db #0x00	; 0
	.db #0x00	; 0
	.db #0x00	; 0
	.db #0x10	; 16
	.db #0x10	; 16
	.db #0x10	; 16
	.db #0x10	; 16
	.db #0x10	; 16
	.db #0x10	; 16
	.db #0x10	; 16
	.db #0x10	; 16
	.db #0x00	; 0
	.db #0x00	; 0
	.db #0x10	; 16
	.db #0x10	; 16
	.db #0x00	; 0
	.db #0x00	; 0
_BackgroundMap3:
	.db #0x01	; 1
	.db #0x07	; 7
	.db #0x0d	; 13
	.db #0x0f	; 15
	.db #0x0d	; 13
	.db #0x0f	; 15
	.db #0x0d	; 13
	.db #0x0f	; 15
	.db #0x0d	; 13
	.db #0x0f	; 15
	.db #0x0d	; 13
	.db #0x0f	; 15
	.db #0x0d	; 13
	.db #0x0f	; 15
	.db #0x0d	; 13
	.db #0x0f	; 15
	.db #0x0d	; 13
	.db #0x0f	; 15
	.db #0x0d	; 13
	.db #0x0f	; 15
	.db #0x0d	; 13
	.db #0x0f	; 15
	.db #0x0d	; 13
	.db #0x0f	; 15
	.db #0x0d	; 13
	.db #0x0f	; 15
	.db #0x0d	; 13
	.db #0x0f	; 15
	.db #0x0d	; 13
	.db #0x0f	; 15
	.db #0x0d	; 13
	.db #0x0f	; 15
	.db #0x0d	; 13
	.db #0x0f	; 15
	.db #0x0d	; 13
	.db #0x0f	; 15
	.db #0x0d	; 13
	.db #0x0f	; 15
	.db #0x0d	; 13
	.db #0x0f	; 15
	.db #0x0d	; 13
	.db #0x0f	; 15
	.db #0x0d	; 13
	.db #0x0f	; 15
	.db #0x0d	; 13
	.db #0x0f	; 15
	.db #0x0d	; 13
	.db #0x0f	; 15
	.db #0x0d	; 13
	.db #0x0f	; 15
	.db #0x0d	; 13
	.db #0x0f	; 15
	.db #0x0d	; 13
	.db #0x0f	; 15
	.db #0x0d	; 13
	.db #0x0f	; 15
	.db #0x0d	; 13
	.db #0x0f	; 15
	.db #0x0d	; 13
	.db #0x0f	; 15
	.db #0x0d	; 13
	.db #0x0f	; 15
	.db #0x11	; 17
	.db #0x12	; 18
	.db #0x02	; 2
	.db #0x08	; 8
	.db #0x0e	; 14
	.db #0x10	; 16
	.db #0x0e	; 14
	.db #0x10	; 16
	.db #0x0e	; 14
	.db #0x10	; 16
	.db #0x0e	; 14
	.db #0x10	; 16
	.db #0x0e	; 14
	.db #0x10	; 16
	.db #0x0e	; 14
	.db #0x10	; 16
	.db #0x0e	; 14
	.db #0x10	; 16
	.db #0x0e	; 14
	.db #0x10	; 16
	.db #0x0e	; 14
	.db #0x10	; 16
	.db #0x0e	; 14
	.db #0x10	; 16
	.db #0x0e	; 14
	.db #0x10	; 16
	.db #0x0e	; 14
	.db #0x10	; 16
	.db #0x0e	; 14
	.db #0x10	; 16
	.db #0x0e	; 14
	.db #0x10	; 16
	.db #0x0e	; 14
	.db #0x10	; 16
	.db #0x0e	; 14
	.db #0x10	; 16
	.db #0x0e	; 14
	.db #0x10	; 16
	.db #0x0e	; 14
	.db #0x10	; 16
	.db #0x0e	; 14
	.db #0x10	; 16
	.db #0x0e	; 14
	.db #0x10	; 16
	.db #0x0e	; 14
	.db #0x10	; 16
	.db #0x0e	; 14
	.db #0x10	; 16
	.db #0x0e	; 14
	.db #0x10	; 16
	.db #0x0e	; 14
	.db #0x10	; 16
	.db #0x0e	; 14
	.db #0x10	; 16
	.db #0x0e	; 14
	.db #0x10	; 16
	.db #0x0e	; 14
	.db #0x10	; 16
	.db #0x0e	; 14
	.db #0x10	; 16
	.db #0x0e	; 14
	.db #0x10	; 16
	.db #0x0e	; 14
	.db #0x10	; 16
	.db #0x13	; 19
	.db #0x14	; 20
	.db #0x03	; 3
	.db #0x09	; 9
	.db #0x00	; 0
	.db #0x00	; 0
	.db #0x00	; 0
	.db #0x00	; 0
	.db #0x00	; 0
	.db #0x00	; 0
	.db #0x00	; 0
	.db #0x00	; 0
	.db #0x00	; 0
	.db #0x00	; 0
	.db #0x00	; 0
	.db #0x00	; 0
	.db #0x00	; 0
	.db #0x00	; 0
	.db #0x00	; 0
	.db #0x00	; 0
	.db #0x00	; 0
	.db #0x00	; 0
	.db #0x00	; 0
	.db #0x00	; 0
	.db #0x00	; 0
	.db #0x00	; 0
	.db #0x00	; 0
	.db #0x00	; 0
	.db #0x00	; 0
	.db #0x00	; 0
	.db #0x00	; 0
	.db #0x00	; 0
	.db #0x00	; 0
	.db #0x00	; 0
	.db #0x00	; 0
	.db #0x00	; 0
	.db #0x00	; 0
	.db #0x00	; 0
	.db #0x00	; 0
	.db #0x00	; 0
	.db #0x00	; 0
	.db #0x00	; 0
	.db #0x00	; 0
	.db #0x00	; 0
	.db #0x00	; 0
	.db #0x00	; 0
	.db #0x00	; 0
	.db #0x00	; 0
	.db #0x00	; 0
	.db #0x00	; 0
	.db #0x00	; 0
	.db #0x00	; 0
	.db #0x00	; 0
	.db #0x00	; 0
	.db #0x00	; 0
	.db #0x00	; 0
	.db #0x00	; 0
	.db #0x00	; 0
	.db #0x00	; 0
	.db #0x00	; 0
	.db #0x00	; 0
	.db #0x00	; 0
	.db #0x00	; 0
	.db #0x00	; 0
	.db #0x15	; 21
	.db #0x17	; 23
	.db #0x04	; 4
	.db #0x0a	; 10
	.db #0x00	; 0
	.db #0x00	; 0
	.db #0x00	; 0
	.db #0x00	; 0
	.db #0x00	; 0
	.db #0x00	; 0
	.db #0x00	; 0
	.db #0x00	; 0
	.db #0x00	; 0
	.db #0x00	; 0
	.db #0x00	; 0
	.db #0x00	; 0
	.db #0x00	; 0
	.db #0x00	; 0
	.db #0x00	; 0
	.db #0x00	; 0
	.db #0x00	; 0
	.db #0x00	; 0
	.db #0x00	; 0
	.db #0x00	; 0
	.db #0x00	; 0
	.db #0x00	; 0
	.db #0x00	; 0
	.db #0x00	; 0
	.db #0x00	; 0
	.db #0x00	; 0
	.db #0x00	; 0
	.db #0x00	; 0
	.db #0x00	; 0
	.db #0x00	; 0
	.db #0x00	; 0
	.db #0x00	; 0
	.db #0x00	; 0
	.db #0x00	; 0
	.db #0x00	; 0
	.db #0x00	; 0
	.db #0x00	; 0
	.db #0x00	; 0
	.db #0x00	; 0
	.db #0x00	; 0
	.db #0x00	; 0
	.db #0x00	; 0
	.db #0x00	; 0
	.db #0x00	; 0
	.db #0x00	; 0
	.db #0x00	; 0
	.db #0x00	; 0
	.db #0x00	; 0
	.db #0x00	; 0
	.db #0x00	; 0
	.db #0x00	; 0
	.db #0x00	; 0
	.db #0x00	; 0
	.db #0x00	; 0
	.db #0x00	; 0
	.db #0x00	; 0
	.db #0x00	; 0
	.db #0x00	; 0
	.db #0x00	; 0
	.db #0x00	; 0
	.db #0x16	; 22
	.db #0x18	; 24
	.db #0x03	; 3
	.db #0x09	; 9
	.db #0x00	; 0
	.db #0x00	; 0
	.db #0x00	; 0
	.db #0x00	; 0
	.db #0x00	; 0
	.db #0x00	; 0
	.db #0x00	; 0
	.db #0x00	; 0
	.db #0x00	; 0
	.db #0x00	; 0
	.db #0x49	; 73	'I'
	.db #0x41	; 65	'A'
	.db #0x3a	; 58
	.db #0x4d	; 77	'M'
	.db #0x46	; 70	'F'
	.db #0x3a	; 58
	.db #0x49	; 73	'I'
	.db #0x00	; 0
	.db #0x00	; 0
	.db #0x00	; 0
	.db #0x00	; 0
	.db #0x00	; 0
	.db #0x00	; 0
	.db #0x00	; 0
	.db #0x00	; 0
	.db #0x49	; 73	'I'
	.db #0x41	; 65	'A'
	.db #0x3a	; 58
	.db #0x4d	; 77	'M'
	.db #0x46	; 70	'F'
	.db #0x3a	; 58
	.db #0x49	; 73	'I'
	.db #0x00	; 0
	.db #0x00	; 0
	.db #0x00	; 0
	.db #0x00	; 0
	.db #0x00	; 0
	.db #0x00	; 0
	.db #0x00	; 0
	.db #0x00	; 0
	.db #0x49	; 73	'I'
	.db #0x41	; 65	'A'
	.db #0x3a	; 58
	.db #0x4d	; 77	'M'
	.db #0x46	; 70	'F'
	.db #0x3a	; 58
	.db #0x49	; 73	'I'
	.db #0x00	; 0
	.db #0x00	; 0
	.db #0x00	; 0
	.db #0x00	; 0
	.db #0x00	; 0
	.db #0x00	; 0
	.db #0x00	; 0
	.db #0x00	; 0
	.db #0x00	; 0
	.db #0x00	; 0
	.db #0x00	; 0
	.db #0x00	; 0
	.db #0x00	; 0
	.db #0x15	; 21
	.db #0x17	; 23
	.db #0x04	; 4
	.db #0x0a	; 10
	.db #0x00	; 0
	.db #0x00	; 0
	.db #0x00	; 0
	.db #0x00	; 0
	.db #0x00	; 0
	.db #0x00	; 0
	.db #0x00	; 0
	.db #0x00	; 0
	.db #0x00	; 0
	.db #0x00	; 0
	.db #0x00	; 0
	.db #0x00	; 0
	.db #0x00	; 0
	.db #0x00	; 0
	.db #0x00	; 0
	.db #0x00	; 0
	.db #0x00	; 0
	.db #0x00	; 0
	.db #0x00	; 0
	.db #0x00	; 0
	.db #0x00	; 0
	.db #0x00	; 0
	.db #0x00	; 0
	.db #0x00	; 0
	.db #0x00	; 0
	.db #0x00	; 0
	.db #0x00	; 0
	.db #0x00	; 0
	.db #0x00	; 0
	.db #0x00	; 0
	.db #0x00	; 0
	.db #0x00	; 0
	.db #0x00	; 0
	.db #0x00	; 0
	.db #0x00	; 0
	.db #0x00	; 0
	.db #0x00	; 0
	.db #0x00	; 0
	.db #0x00	; 0
	.db #0x00	; 0
	.db #0x00	; 0
	.db #0x00	; 0
	.db #0x00	; 0
	.db #0x00	; 0
	.db #0x00	; 0
	.db #0x00	; 0
	.db #0x00	; 0
	.db #0x00	; 0
	.db #0x00	; 0
	.db #0x00	; 0
	.db #0x00	; 0
	.db #0x00	; 0
	.db #0x00	; 0
	.db #0x00	; 0
	.db #0x00	; 0
	.db #0x00	; 0
	.db #0x00	; 0
	.db #0x00	; 0
	.db #0x00	; 0
	.db #0x00	; 0
	.db #0x16	; 22
	.db #0x18	; 24
	.db #0x03	; 3
	.db #0x09	; 9
	.db #0x00	; 0
	.db #0x00	; 0
	.db #0x00	; 0
	.db #0x00	; 0
	.db #0x00	; 0
	.db #0x00	; 0
	.db #0x00	; 0
	.db #0x00	; 0
	.db #0x00	; 0
	.db #0x00	; 0
	.db #0x00	; 0
	.db #0x00	; 0
	.db #0x00	; 0
	.db #0x3a	; 58
	.db #0x00	; 0
	.db #0x00	; 0
	.db #0x00	; 0
	.db #0x00	; 0
	.db #0x00	; 0
	.db #0x00	; 0
	.db #0x00	; 0
	.db #0x00	; 0
	.db #0x00	; 0
	.db #0x00	; 0
	.db #0x00	; 0
	.db #0x00	; 0
	.db #0x00	; 0
	.db #0x00	; 0
	.db #0x00	; 0
	.db #0x3b	; 59
	.db #0x00	; 0
	.db #0x00	; 0
	.db #0x00	; 0
	.db #0x00	; 0
	.db #0x00	; 0
	.db #0x00	; 0
	.db #0x00	; 0
	.db #0x00	; 0
	.db #0x00	; 0
	.db #0x00	; 0
	.db #0x00	; 0
	.db #0x00	; 0
	.db #0x00	; 0
	.db #0x3c	; 60
	.db #0x00	; 0
	.db #0x00	; 0
	.db #0x00	; 0
	.db #0x00	; 0
	.db #0x00	; 0
	.db #0x00	; 0
	.db #0x00	; 0
	.db #0x00	; 0
	.db #0x00	; 0
	.db #0x00	; 0
	.db #0x00	; 0
	.db #0x00	; 0
	.db #0x00	; 0
	.db #0x00	; 0
	.db #0x00	; 0
	.db #0x00	; 0
	.db #0x15	; 21
	.db #0x17	; 23
	.db #0x04	; 4
	.db #0x0a	; 10
	.db #0x00	; 0
	.db #0x00	; 0
	.db #0x00	; 0
	.db #0x00	; 0
	.db #0x00	; 0
	.db #0x00	; 0
	.db #0x00	; 0
	.db #0x00	; 0
	.db #0x00	; 0
	.db #0x00	; 0
	.db #0x00	; 0
	.db #0x00	; 0
	.db #0x00	; 0
	.db #0x00	; 0
	.db #0x00	; 0
	.db #0x00	; 0
	.db #0x00	; 0
	.db #0x00	; 0
	.db #0x00	; 0
	.db #0x00	; 0
	.db #0x00	; 0
	.db #0x00	; 0
	.db #0x00	; 0
	.db #0x00	; 0
	.db #0x00	; 0
	.db #0x00	; 0
	.db #0x00	; 0
	.db #0x00	; 0
	.db #0x00	; 0
	.db #0x00	; 0
	.db #0x00	; 0
	.db #0x00	; 0
	.db #0x00	; 0
	.db #0x00	; 0
	.db #0x00	; 0
	.db #0x00	; 0
	.db #0x00	; 0
	.db #0x00	; 0
	.db #0x00	; 0
	.db #0x00	; 0
	.db #0x00	; 0
	.db #0x00	; 0
	.db #0x00	; 0
	.db #0x00	; 0
	.db #0x00	; 0
	.db #0x00	; 0
	.db #0x00	; 0
	.db #0x00	; 0
	.db #0x00	; 0
	.db #0x00	; 0
	.db #0x00	; 0
	.db #0x00	; 0
	.db #0x00	; 0
	.db #0x00	; 0
	.db #0x00	; 0
	.db #0x00	; 0
	.db #0x00	; 0
	.db #0x00	; 0
	.db #0x00	; 0
	.db #0x00	; 0
	.db #0x16	; 22
	.db #0x18	; 24
	.db #0x03	; 3
	.db #0x09	; 9
	.db #0x00	; 0
	.db #0x00	; 0
	.db #0x00	; 0
	.db #0x00	; 0
	.db #0x00	; 0
	.db #0x00	; 0
	.db #0x00	; 0
	.db #0x00	; 0
	.db #0x00	; 0
	.db #0x00	; 0
	.db #0x00	; 0
	.db #0x00	; 0
	.db #0x00	; 0
	.db #0x00	; 0
	.db #0x00	; 0
	.db #0x00	; 0
	.db #0x00	; 0
	.db #0x00	; 0
	.db #0x00	; 0
	.db #0x00	; 0
	.db #0x00	; 0
	.db #0x00	; 0
	.db #0x00	; 0
	.db #0x00	; 0
	.db #0x00	; 0
	.db #0x00	; 0
	.db #0x00	; 0
	.db #0x00	; 0
	.db #0x00	; 0
	.db #0x00	; 0
	.db #0x00	; 0
	.db #0x00	; 0
	.db #0x00	; 0
	.db #0x00	; 0
	.db #0x00	; 0
	.db #0x00	; 0
	.db #0x00	; 0
	.db #0x00	; 0
	.db #0x00	; 0
	.db #0x00	; 0
	.db #0x00	; 0
	.db #0x00	; 0
	.db #0x00	; 0
	.db #0x00	; 0
	.db #0x00	; 0
	.db #0x00	; 0
	.db #0x00	; 0
	.db #0x00	; 0
	.db #0x00	; 0
	.db #0x00	; 0
	.db #0x00	; 0
	.db #0x00	; 0
	.db #0x00	; 0
	.db #0x00	; 0
	.db #0x00	; 0
	.db #0x00	; 0
	.db #0x00	; 0
	.db #0x00	; 0
	.db #0x00	; 0
	.db #0x00	; 0
	.db #0x36	; 54	'6'
	.db #0x38	; 56	'8'
	.db #0x04	; 4
	.db #0x0a	; 10
	.db #0x00	; 0
	.db #0x00	; 0
	.db #0x00	; 0
	.db #0x00	; 0
	.db #0x00	; 0
	.db #0x00	; 0
	.db #0x00	; 0
	.db #0x00	; 0
	.db #0x00	; 0
	.db #0x00	; 0
	.db #0x00	; 0
	.db #0x00	; 0
	.db #0x00	; 0
	.db #0x00	; 0
	.db #0x00	; 0
	.db #0x00	; 0
	.db #0x00	; 0
	.db #0x00	; 0
	.db #0x00	; 0
	.db #0x00	; 0
	.db #0x00	; 0
	.db #0x00	; 0
	.db #0x00	; 0
	.db #0x00	; 0
	.db #0x00	; 0
	.db #0x00	; 0
	.db #0x00	; 0
	.db #0x00	; 0
	.db #0x00	; 0
	.db #0x00	; 0
	.db #0x00	; 0
	.db #0x00	; 0
	.db #0x00	; 0
	.db #0x00	; 0
	.db #0x00	; 0
	.db #0x00	; 0
	.db #0x00	; 0
	.db #0x00	; 0
	.db #0x00	; 0
	.db #0x00	; 0
	.db #0x00	; 0
	.db #0x00	; 0
	.db #0x00	; 0
	.db #0x00	; 0
	.db #0x00	; 0
	.db #0x00	; 0
	.db #0x00	; 0
	.db #0x00	; 0
	.db #0x00	; 0
	.db #0x00	; 0
	.db #0x00	; 0
	.db #0x00	; 0
	.db #0x00	; 0
	.db #0x00	; 0
	.db #0x00	; 0
	.db #0x00	; 0
	.db #0x00	; 0
	.db #0x00	; 0
	.db #0x00	; 0
	.db #0x00	; 0
	.db #0x37	; 55	'7'
	.db #0x39	; 57	'9'
	.db #0x03	; 3
	.db #0x09	; 9
	.db #0x00	; 0
	.db #0x00	; 0
	.db #0x00	; 0
	.db #0x00	; 0
	.db #0x00	; 0
	.db #0x00	; 0
	.db #0x00	; 0
	.db #0x00	; 0
	.db #0x00	; 0
	.db #0x00	; 0
	.db #0x00	; 0
	.db #0x00	; 0
	.db #0x00	; 0
	.db #0x00	; 0
	.db #0x00	; 0
	.db #0x00	; 0
	.db #0x00	; 0
	.db #0x00	; 0
	.db #0x00	; 0
	.db #0x00	; 0
	.db #0x00	; 0
	.db #0x00	; 0
	.db #0x00	; 0
	.db #0x00	; 0
	.db #0x00	; 0
	.db #0x00	; 0
	.db #0x00	; 0
	.db #0x00	; 0
	.db #0x00	; 0
	.db #0x00	; 0
	.db #0x00	; 0
	.db #0x00	; 0
	.db #0x00	; 0
	.db #0x00	; 0
	.db #0x00	; 0
	.db #0x00	; 0
	.db #0x00	; 0
	.db #0x00	; 0
	.db #0x00	; 0
	.db #0x00	; 0
	.db #0x00	; 0
	.db #0x00	; 0
	.db #0x00	; 0
	.db #0x00	; 0
	.db #0x00	; 0
	.db #0x00	; 0
	.db #0x00	; 0
	.db #0x00	; 0
	.db #0x00	; 0
	.db #0x00	; 0
	.db #0x00	; 0
	.db #0x00	; 0
	.db #0x00	; 0
	.db #0x00	; 0
	.db #0x00	; 0
	.db #0x00	; 0
	.db #0x00	; 0
	.db #0x00	; 0
	.db #0x00	; 0
	.db #0x00	; 0
	.db #0x15	; 21
	.db #0x17	; 23
	.db #0x04	; 4
	.db #0x0a	; 10
	.db #0x00	; 0
	.db #0x00	; 0
	.db #0x00	; 0
	.db #0x00	; 0
	.db #0x00	; 0
	.db #0x00	; 0
	.db #0x00	; 0
	.db #0x00	; 0
	.db #0x00	; 0
	.db #0x00	; 0
	.db #0x00	; 0
	.db #0x00	; 0
	.db #0x00	; 0
	.db #0x00	; 0
	.db #0x00	; 0
	.db #0x00	; 0
	.db #0x00	; 0
	.db #0x00	; 0
	.db #0x00	; 0
	.db #0x00	; 0
	.db #0x00	; 0
	.db #0x00	; 0
	.db #0x00	; 0
	.db #0x00	; 0
	.db #0x00	; 0
	.db #0x00	; 0
	.db #0x00	; 0
	.db #0x00	; 0
	.db #0x00	; 0
	.db #0x00	; 0
	.db #0x00	; 0
	.db #0x00	; 0
	.db #0x00	; 0
	.db #0x00	; 0
	.db #0x00	; 0
	.db #0x00	; 0
	.db #0x00	; 0
	.db #0x00	; 0
	.db #0x00	; 0
	.db #0x00	; 0
	.db #0x00	; 0
	.db #0x00	; 0
	.db #0x00	; 0
	.db #0x00	; 0
	.db #0x00	; 0
	.db #0x00	; 0
	.db #0x00	; 0
	.db #0x00	; 0
	.db #0x00	; 0
	.db #0x00	; 0
	.db #0x00	; 0
	.db #0x00	; 0
	.db #0x00	; 0
	.db #0x00	; 0
	.db #0x00	; 0
	.db #0x00	; 0
	.db #0x00	; 0
	.db #0x00	; 0
	.db #0x00	; 0
	.db #0x00	; 0
	.db #0x16	; 22
	.db #0x18	; 24
	.db #0x03	; 3
	.db #0x09	; 9
	.db #0x00	; 0
	.db #0x00	; 0
	.db #0x00	; 0
	.db #0x00	; 0
	.db #0x00	; 0
	.db #0x00	; 0
	.db #0x00	; 0
	.db #0x00	; 0
	.db #0x00	; 0
	.db #0x00	; 0
	.db #0x00	; 0
	.db #0x00	; 0
	.db #0x00	; 0
	.db #0x00	; 0
	.db #0x00	; 0
	.db #0x00	; 0
	.db #0x00	; 0
	.db #0x00	; 0
	.db #0x00	; 0
	.db #0x00	; 0
	.db #0x00	; 0
	.db #0x00	; 0
	.db #0x00	; 0
	.db #0x00	; 0
	.db #0x00	; 0
	.db #0x00	; 0
	.db #0x00	; 0
	.db #0x00	; 0
	.db #0x00	; 0
	.db #0x00	; 0
	.db #0x00	; 0
	.db #0x00	; 0
	.db #0x00	; 0
	.db #0x00	; 0
	.db #0x00	; 0
	.db #0x00	; 0
	.db #0x00	; 0
	.db #0x00	; 0
	.db #0x00	; 0
	.db #0x00	; 0
	.db #0x00	; 0
	.db #0x00	; 0
	.db #0x00	; 0
	.db #0x00	; 0
	.db #0x00	; 0
	.db #0x00	; 0
	.db #0x00	; 0
	.db #0x00	; 0
	.db #0x00	; 0
	.db #0x00	; 0
	.db #0x00	; 0
	.db #0x00	; 0
	.db #0x00	; 0
	.db #0x00	; 0
	.db #0x00	; 0
	.db #0x00	; 0
	.db #0x00	; 0
	.db #0x00	; 0
	.db #0x00	; 0
	.db #0x00	; 0
	.db #0x15	; 21
	.db #0x17	; 23
	.db #0x04	; 4
	.db #0x0a	; 10
	.db #0x00	; 0
	.db #0x00	; 0
	.db #0x00	; 0
	.db #0x00	; 0
	.db #0x00	; 0
	.db #0x00	; 0
	.db #0x00	; 0
	.db #0x00	; 0
	.db #0x00	; 0
	.db #0x00	; 0
	.db #0x49	; 73	'I'
	.db #0x41	; 65	'A'
	.db #0x3a	; 58
	.db #0x4d	; 77	'M'
	.db #0x46	; 70	'F'
	.db #0x3a	; 58
	.db #0x49	; 73	'I'
	.db #0x00	; 0
	.db #0x00	; 0
	.db #0x00	; 0
	.db #0x00	; 0
	.db #0x00	; 0
	.db #0x00	; 0
	.db #0x00	; 0
	.db #0x00	; 0
	.db #0x49	; 73	'I'
	.db #0x41	; 65	'A'
	.db #0x3a	; 58
	.db #0x4d	; 77	'M'
	.db #0x46	; 70	'F'
	.db #0x3a	; 58
	.db #0x49	; 73	'I'
	.db #0x00	; 0
	.db #0x00	; 0
	.db #0x00	; 0
	.db #0x00	; 0
	.db #0x00	; 0
	.db #0x00	; 0
	.db #0x00	; 0
	.db #0x00	; 0
	.db #0x49	; 73	'I'
	.db #0x41	; 65	'A'
	.db #0x3a	; 58
	.db #0x4d	; 77	'M'
	.db #0x46	; 70	'F'
	.db #0x3a	; 58
	.db #0x49	; 73	'I'
	.db #0x00	; 0
	.db #0x00	; 0
	.db #0x00	; 0
	.db #0x00	; 0
	.db #0x00	; 0
	.db #0x00	; 0
	.db #0x00	; 0
	.db #0x00	; 0
	.db #0x00	; 0
	.db #0x00	; 0
	.db #0x00	; 0
	.db #0x00	; 0
	.db #0x00	; 0
	.db #0x16	; 22
	.db #0x18	; 24
	.db #0x03	; 3
	.db #0x09	; 9
	.db #0x00	; 0
	.db #0x00	; 0
	.db #0x00	; 0
	.db #0x00	; 0
	.db #0x00	; 0
	.db #0x00	; 0
	.db #0x00	; 0
	.db #0x00	; 0
	.db #0x00	; 0
	.db #0x00	; 0
	.db #0x00	; 0
	.db #0x00	; 0
	.db #0x00	; 0
	.db #0x00	; 0
	.db #0x00	; 0
	.db #0x00	; 0
	.db #0x00	; 0
	.db #0x00	; 0
	.db #0x00	; 0
	.db #0x00	; 0
	.db #0x00	; 0
	.db #0x00	; 0
	.db #0x00	; 0
	.db #0x00	; 0
	.db #0x00	; 0
	.db #0x00	; 0
	.db #0x00	; 0
	.db #0x00	; 0
	.db #0x00	; 0
	.db #0x00	; 0
	.db #0x00	; 0
	.db #0x00	; 0
	.db #0x00	; 0
	.db #0x00	; 0
	.db #0x00	; 0
	.db #0x00	; 0
	.db #0x00	; 0
	.db #0x00	; 0
	.db #0x00	; 0
	.db #0x00	; 0
	.db #0x00	; 0
	.db #0x00	; 0
	.db #0x00	; 0
	.db #0x00	; 0
	.db #0x00	; 0
	.db #0x00	; 0
	.db #0x00	; 0
	.db #0x00	; 0
	.db #0x00	; 0
	.db #0x00	; 0
	.db #0x00	; 0
	.db #0x00	; 0
	.db #0x00	; 0
	.db #0x00	; 0
	.db #0x00	; 0
	.db #0x00	; 0
	.db #0x00	; 0
	.db #0x00	; 0
	.db #0x00	; 0
	.db #0x00	; 0
	.db #0x15	; 21
	.db #0x17	; 23
	.db #0x04	; 4
	.db #0x0a	; 10
	.db #0x00	; 0
	.db #0x00	; 0
	.db #0x00	; 0
	.db #0x00	; 0
	.db #0x00	; 0
	.db #0x00	; 0
	.db #0x00	; 0
	.db #0x00	; 0
	.db #0x00	; 0
	.db #0x00	; 0
	.db #0x00	; 0
	.db #0x00	; 0
	.db #0x00	; 0
	.db #0x3d	; 61
	.db #0x00	; 0
	.db #0x00	; 0
	.db #0x00	; 0
	.db #0x00	; 0
	.db #0x00	; 0
	.db #0x00	; 0
	.db #0x00	; 0
	.db #0x00	; 0
	.db #0x00	; 0
	.db #0x00	; 0
	.db #0x00	; 0
	.db #0x00	; 0
	.db #0x00	; 0
	.db #0x00	; 0
	.db #0x3e	; 62
	.db #0x00	; 0
	.db #0x00	; 0
	.db #0x00	; 0
	.db #0x00	; 0
	.db #0x00	; 0
	.db #0x00	; 0
	.db #0x00	; 0
	.db #0x00	; 0
	.db #0x00	; 0
	.db #0x00	; 0
	.db #0x00	; 0
	.db #0x00	; 0
	.db #0x00	; 0
	.db #0x00	; 0
	.db #0x3f	; 63
	.db #0x00	; 0
	.db #0x00	; 0
	.db #0x00	; 0
	.db #0x00	; 0
	.db #0x00	; 0
	.db #0x00	; 0
	.db #0x00	; 0
	.db #0x00	; 0
	.db #0x00	; 0
	.db #0x00	; 0
	.db #0x00	; 0
	.db #0x00	; 0
	.db #0x00	; 0
	.db #0x00	; 0
	.db #0x00	; 0
	.db #0x00	; 0
	.db #0x16	; 22
	.db #0x18	; 24
	.db #0x03	; 3
	.db #0x09	; 9
	.db #0x00	; 0
	.db #0x00	; 0
	.db #0x00	; 0
	.db #0x00	; 0
	.db #0x00	; 0
	.db #0x00	; 0
	.db #0x00	; 0
	.db #0x00	; 0
	.db #0x00	; 0
	.db #0x00	; 0
	.db #0x00	; 0
	.db #0x00	; 0
	.db #0x00	; 0
	.db #0x00	; 0
	.db #0x00	; 0
	.db #0x00	; 0
	.db #0x00	; 0
	.db #0x00	; 0
	.db #0x00	; 0
	.db #0x00	; 0
	.db #0x00	; 0
	.db #0x00	; 0
	.db #0x00	; 0
	.db #0x00	; 0
	.db #0x00	; 0
	.db #0x00	; 0
	.db #0x00	; 0
	.db #0x00	; 0
	.db #0x00	; 0
	.db #0x00	; 0
	.db #0x00	; 0
	.db #0x00	; 0
	.db #0x00	; 0
	.db #0x00	; 0
	.db #0x00	; 0
	.db #0x00	; 0
	.db #0x00	; 0
	.db #0x00	; 0
	.db #0x00	; 0
	.db #0x00	; 0
	.db #0x00	; 0
	.db #0x00	; 0
	.db #0x00	; 0
	.db #0x00	; 0
	.db #0x00	; 0
	.db #0x00	; 0
	.db #0x00	; 0
	.db #0x00	; 0
	.db #0x00	; 0
	.db #0x00	; 0
	.db #0x00	; 0
	.db #0x00	; 0
	.db #0x00	; 0
	.db #0x00	; 0
	.db #0x00	; 0
	.db #0x00	; 0
	.db #0x00	; 0
	.db #0x00	; 0
	.db #0x00	; 0
	.db #0x00	; 0
	.db #0x15	; 21
	.db #0x17	; 23
	.db #0x04	; 4
	.db #0x0a	; 10
	.db #0x00	; 0
	.db #0x00	; 0
	.db #0x00	; 0
	.db #0x00	; 0
	.db #0x00	; 0
	.db #0x00	; 0
	.db #0x00	; 0
	.db #0x00	; 0
	.db #0x00	; 0
	.db #0x00	; 0
	.db #0x00	; 0
	.db #0x00	; 0
	.db #0x00	; 0
	.db #0x00	; 0
	.db #0x00	; 0
	.db #0x00	; 0
	.db #0x00	; 0
	.db #0x00	; 0
	.db #0x00	; 0
	.db #0x00	; 0
	.db #0x00	; 0
	.db #0x00	; 0
	.db #0x00	; 0
	.db #0x00	; 0
	.db #0x00	; 0
	.db #0x00	; 0
	.db #0x00	; 0
	.db #0x00	; 0
	.db #0x00	; 0
	.db #0x00	; 0
	.db #0x00	; 0
	.db #0x00	; 0
	.db #0x00	; 0
	.db #0x00	; 0
	.db #0x00	; 0
	.db #0x00	; 0
	.db #0x00	; 0
	.db #0x00	; 0
	.db #0x00	; 0
	.db #0x00	; 0
	.db #0x00	; 0
	.db #0x00	; 0
	.db #0x00	; 0
	.db #0x00	; 0
	.db #0x00	; 0
	.db #0x00	; 0
	.db #0x00	; 0
	.db #0x00	; 0
	.db #0x00	; 0
	.db #0x00	; 0
	.db #0x00	; 0
	.db #0x00	; 0
	.db #0x00	; 0
	.db #0x00	; 0
	.db #0x00	; 0
	.db #0x00	; 0
	.db #0x00	; 0
	.db #0x00	; 0
	.db #0x00	; 0
	.db #0x00	; 0
	.db #0x16	; 22
	.db #0x18	; 24
	.db #0x03	; 3
	.db #0x09	; 9
	.db #0x00	; 0
	.db #0x00	; 0
	.db #0x00	; 0
	.db #0x00	; 0
	.db #0x00	; 0
	.db #0x00	; 0
	.db #0x00	; 0
	.db #0x00	; 0
	.db #0x00	; 0
	.db #0x00	; 0
	.db #0x00	; 0
	.db #0x00	; 0
	.db #0x00	; 0
	.db #0x00	; 0
	.db #0x00	; 0
	.db #0x00	; 0
	.db #0x00	; 0
	.db #0x00	; 0
	.db #0x00	; 0
	.db #0x00	; 0
	.db #0x00	; 0
	.db #0x00	; 0
	.db #0x00	; 0
	.db #0x00	; 0
	.db #0x00	; 0
	.db #0x00	; 0
	.db #0x00	; 0
	.db #0x00	; 0
	.db #0x00	; 0
	.db #0x00	; 0
	.db #0x00	; 0
	.db #0x00	; 0
	.db #0x00	; 0
	.db #0x00	; 0
	.db #0x00	; 0
	.db #0x00	; 0
	.db #0x00	; 0
	.db #0x00	; 0
	.db #0x00	; 0
	.db #0x00	; 0
	.db #0x00	; 0
	.db #0x00	; 0
	.db #0x00	; 0
	.db #0x00	; 0
	.db #0x00	; 0
	.db #0x00	; 0
	.db #0x00	; 0
	.db #0x00	; 0
	.db #0x00	; 0
	.db #0x00	; 0
	.db #0x00	; 0
	.db #0x00	; 0
	.db #0x00	; 0
	.db #0x00	; 0
	.db #0x00	; 0
	.db #0x00	; 0
	.db #0x00	; 0
	.db #0x00	; 0
	.db #0x00	; 0
	.db #0x00	; 0
	.db #0x15	; 21
	.db #0x17	; 23
	.db #0x04	; 4
	.db #0x0a	; 10
	.db #0x00	; 0
	.db #0x00	; 0
	.db #0x00	; 0
	.db #0x00	; 0
	.db #0x00	; 0
	.db #0x00	; 0
	.db #0x00	; 0
	.db #0x00	; 0
	.db #0x00	; 0
	.db #0x00	; 0
	.db #0x00	; 0
	.db #0x00	; 0
	.db #0x00	; 0
	.db #0x00	; 0
	.db #0x00	; 0
	.db #0x00	; 0
	.db #0x00	; 0
	.db #0x00	; 0
	.db #0x00	; 0
	.db #0x00	; 0
	.db #0x00	; 0
	.db #0x00	; 0
	.db #0x00	; 0
	.db #0x00	; 0
	.db #0x00	; 0
	.db #0x00	; 0
	.db #0x00	; 0
	.db #0x00	; 0
	.db #0x00	; 0
	.db #0x00	; 0
	.db #0x00	; 0
	.db #0x00	; 0
	.db #0x00	; 0
	.db #0x00	; 0
	.db #0x00	; 0
	.db #0x00	; 0
	.db #0x00	; 0
	.db #0x00	; 0
	.db #0x00	; 0
	.db #0x00	; 0
	.db #0x00	; 0
	.db #0x00	; 0
	.db #0x00	; 0
	.db #0x00	; 0
	.db #0x00	; 0
	.db #0x00	; 0
	.db #0x00	; 0
	.db #0x00	; 0
	.db #0x00	; 0
	.db #0x00	; 0
	.db #0x00	; 0
	.db #0x00	; 0
	.db #0x00	; 0
	.db #0x00	; 0
	.db #0x00	; 0
	.db #0x00	; 0
	.db #0x00	; 0
	.db #0x00	; 0
	.db #0x00	; 0
	.db #0x00	; 0
	.db #0x16	; 22
	.db #0x18	; 24
	.db #0x03	; 3
	.db #0x09	; 9
	.db #0x00	; 0
	.db #0x00	; 0
	.db #0x00	; 0
	.db #0x00	; 0
	.db #0x00	; 0
	.db #0x00	; 0
	.db #0x00	; 0
	.db #0x00	; 0
	.db #0x00	; 0
	.db #0x00	; 0
	.db #0x00	; 0
	.db #0x00	; 0
	.db #0x00	; 0
	.db #0x00	; 0
	.db #0x00	; 0
	.db #0x00	; 0
	.db #0x00	; 0
	.db #0x00	; 0
	.db #0x00	; 0
	.db #0x00	; 0
	.db #0x00	; 0
	.db #0x00	; 0
	.db #0x00	; 0
	.db #0x00	; 0
	.db #0x00	; 0
	.db #0x00	; 0
	.db #0x00	; 0
	.db #0x00	; 0
	.db #0x00	; 0
	.db #0x00	; 0
	.db #0x00	; 0
	.db #0x00	; 0
	.db #0x00	; 0
	.db #0x00	; 0
	.db #0x00	; 0
	.db #0x00	; 0
	.db #0x00	; 0
	.db #0x00	; 0
	.db #0x00	; 0
	.db #0x00	; 0
	.db #0x00	; 0
	.db #0x00	; 0
	.db #0x00	; 0
	.db #0x00	; 0
	.db #0x00	; 0
	.db #0x00	; 0
	.db #0x00	; 0
	.db #0x00	; 0
	.db #0x00	; 0
	.db #0x00	; 0
	.db #0x00	; 0
	.db #0x00	; 0
	.db #0x00	; 0
	.db #0x00	; 0
	.db #0x00	; 0
	.db #0x00	; 0
	.db #0x00	; 0
	.db #0x00	; 0
	.db #0x00	; 0
	.db #0x00	; 0
	.db #0x15	; 21
	.db #0x17	; 23
	.db #0x04	; 4
	.db #0x0a	; 10
	.db #0x00	; 0
	.db #0x00	; 0
	.db #0x00	; 0
	.db #0x00	; 0
	.db #0x00	; 0
	.db #0x00	; 0
	.db #0x00	; 0
	.db #0x00	; 0
	.db #0x00	; 0
	.db #0x00	; 0
	.db #0x00	; 0
	.db #0x00	; 0
	.db #0x00	; 0
	.db #0x00	; 0
	.db #0x00	; 0
	.db #0x00	; 0
	.db #0x00	; 0
	.db #0x00	; 0
	.db #0x00	; 0
	.db #0x00	; 0
	.db #0x00	; 0
	.db #0x00	; 0
	.db #0x00	; 0
	.db #0x00	; 0
	.db #0x00	; 0
	.db #0x00	; 0
	.db #0x00	; 0
	.db #0x00	; 0
	.db #0x00	; 0
	.db #0x00	; 0
	.db #0x00	; 0
	.db #0x00	; 0
	.db #0x00	; 0
	.db #0x00	; 0
	.db #0x00	; 0
	.db #0x00	; 0
	.db #0x00	; 0
	.db #0x00	; 0
	.db #0x00	; 0
	.db #0x00	; 0
	.db #0x00	; 0
	.db #0x00	; 0
	.db #0x00	; 0
	.db #0x00	; 0
	.db #0x00	; 0
	.db #0x00	; 0
	.db #0x00	; 0
	.db #0x00	; 0
	.db #0x00	; 0
	.db #0x00	; 0
	.db #0x00	; 0
	.db #0x00	; 0
	.db #0x00	; 0
	.db #0x00	; 0
	.db #0x00	; 0
	.db #0x00	; 0
	.db #0x00	; 0
	.db #0x00	; 0
	.db #0x00	; 0
	.db #0x00	; 0
	.db #0x16	; 22
	.db #0x18	; 24
	.db #0x03	; 3
	.db #0x09	; 9
	.db #0x00	; 0
	.db #0x00	; 0
	.db #0x00	; 0
	.db #0x00	; 0
	.db #0x00	; 0
	.db #0x00	; 0
	.db #0x00	; 0
	.db #0x00	; 0
	.db #0x00	; 0
	.db #0x00	; 0
	.db #0x00	; 0
	.db #0x00	; 0
	.db #0x00	; 0
	.db #0x00	; 0
	.db #0x00	; 0
	.db #0x00	; 0
	.db #0x00	; 0
	.db #0x00	; 0
	.db #0x00	; 0
	.db #0x00	; 0
	.db #0x00	; 0
	.db #0x00	; 0
	.db #0x00	; 0
	.db #0x00	; 0
	.db #0x00	; 0
	.db #0x00	; 0
	.db #0x00	; 0
	.db #0x00	; 0
	.db #0x00	; 0
	.db #0x00	; 0
	.db #0x00	; 0
	.db #0x00	; 0
	.db #0x00	; 0
	.db #0x00	; 0
	.db #0x00	; 0
	.db #0x00	; 0
	.db #0x00	; 0
	.db #0x00	; 0
	.db #0x00	; 0
	.db #0x00	; 0
	.db #0x00	; 0
	.db #0x00	; 0
	.db #0x00	; 0
	.db #0x00	; 0
	.db #0x00	; 0
	.db #0x00	; 0
	.db #0x00	; 0
	.db #0x00	; 0
	.db #0x00	; 0
	.db #0x00	; 0
	.db #0x00	; 0
	.db #0x00	; 0
	.db #0x00	; 0
	.db #0x00	; 0
	.db #0x00	; 0
	.db #0x00	; 0
	.db #0x00	; 0
	.db #0x00	; 0
	.db #0x00	; 0
	.db #0x00	; 0
	.db #0x36	; 54	'6'
	.db #0x38	; 56	'8'
	.db #0x04	; 4
	.db #0x0a	; 10
	.db #0x00	; 0
	.db #0x00	; 0
	.db #0x00	; 0
	.db #0x00	; 0
	.db #0x00	; 0
	.db #0x00	; 0
	.db #0x00	; 0
	.db #0x00	; 0
	.db #0x00	; 0
	.db #0x00	; 0
	.db #0x49	; 73	'I'
	.db #0x41	; 65	'A'
	.db #0x3a	; 58
	.db #0x4d	; 77	'M'
	.db #0x46	; 70	'F'
	.db #0x3a	; 58
	.db #0x49	; 73	'I'
	.db #0x00	; 0
	.db #0x00	; 0
	.db #0x00	; 0
	.db #0x00	; 0
	.db #0x00	; 0
	.db #0x00	; 0
	.db #0x00	; 0
	.db #0x00	; 0
	.db #0x49	; 73	'I'
	.db #0x41	; 65	'A'
	.db #0x3a	; 58
	.db #0x4d	; 77	'M'
	.db #0x46	; 70	'F'
	.db #0x3a	; 58
	.db #0x49	; 73	'I'
	.db #0x00	; 0
	.db #0x00	; 0
	.db #0x00	; 0
	.db #0x00	; 0
	.db #0x00	; 0
	.db #0x00	; 0
	.db #0x00	; 0
	.db #0x00	; 0
	.db #0x49	; 73	'I'
	.db #0x41	; 65	'A'
	.db #0x3a	; 58
	.db #0x4d	; 77	'M'
	.db #0x46	; 70	'F'
	.db #0x3a	; 58
	.db #0x49	; 73	'I'
	.db #0x00	; 0
	.db #0x00	; 0
	.db #0x00	; 0
	.db #0x00	; 0
	.db #0x00	; 0
	.db #0x00	; 0
	.db #0x00	; 0
	.db #0x00	; 0
	.db #0x00	; 0
	.db #0x00	; 0
	.db #0x00	; 0
	.db #0x00	; 0
	.db #0x00	; 0
	.db #0x37	; 55	'7'
	.db #0x39	; 57	'9'
	.db #0x03	; 3
	.db #0x09	; 9
	.db #0x00	; 0
	.db #0x00	; 0
	.db #0x00	; 0
	.db #0x00	; 0
	.db #0x00	; 0
	.db #0x00	; 0
	.db #0x00	; 0
	.db #0x00	; 0
	.db #0x00	; 0
	.db #0x00	; 0
	.db #0x00	; 0
	.db #0x00	; 0
	.db #0x00	; 0
	.db #0x00	; 0
	.db #0x00	; 0
	.db #0x00	; 0
	.db #0x00	; 0
	.db #0x00	; 0
	.db #0x00	; 0
	.db #0x00	; 0
	.db #0x00	; 0
	.db #0x00	; 0
	.db #0x00	; 0
	.db #0x00	; 0
	.db #0x00	; 0
	.db #0x00	; 0
	.db #0x00	; 0
	.db #0x00	; 0
	.db #0x00	; 0
	.db #0x00	; 0
	.db #0x00	; 0
	.db #0x00	; 0
	.db #0x00	; 0
	.db #0x00	; 0
	.db #0x00	; 0
	.db #0x00	; 0
	.db #0x00	; 0
	.db #0x00	; 0
	.db #0x00	; 0
	.db #0x00	; 0
	.db #0x00	; 0
	.db #0x00	; 0
	.db #0x00	; 0
	.db #0x00	; 0
	.db #0x00	; 0
	.db #0x00	; 0
	.db #0x00	; 0
	.db #0x00	; 0
	.db #0x00	; 0
	.db #0x00	; 0
	.db #0x00	; 0
	.db #0x00	; 0
	.db #0x00	; 0
	.db #0x00	; 0
	.db #0x00	; 0
	.db #0x00	; 0
	.db #0x00	; 0
	.db #0x00	; 0
	.db #0x00	; 0
	.db #0x00	; 0
	.db #0x15	; 21
	.db #0x17	; 23
	.db #0x04	; 4
	.db #0x0a	; 10
	.db #0x00	; 0
	.db #0x00	; 0
	.db #0x00	; 0
	.db #0x00	; 0
	.db #0x00	; 0
	.db #0x00	; 0
	.db #0x00	; 0
	.db #0x00	; 0
	.db #0x00	; 0
	.db #0x00	; 0
	.db #0x00	; 0
	.db #0x00	; 0
	.db #0x00	; 0
	.db #0x40	; 64
	.db #0x00	; 0
	.db #0x00	; 0
	.db #0x00	; 0
	.db #0x00	; 0
	.db #0x00	; 0
	.db #0x00	; 0
	.db #0x00	; 0
	.db #0x00	; 0
	.db #0x00	; 0
	.db #0x00	; 0
	.db #0x00	; 0
	.db #0x00	; 0
	.db #0x00	; 0
	.db #0x00	; 0
	.db #0x41	; 65	'A'
	.db #0x00	; 0
	.db #0x00	; 0
	.db #0x00	; 0
	.db #0x00	; 0
	.db #0x00	; 0
	.db #0x00	; 0
	.db #0x00	; 0
	.db #0x00	; 0
	.db #0x00	; 0
	.db #0x00	; 0
	.db #0x00	; 0
	.db #0x00	; 0
	.db #0x00	; 0
	.db #0x00	; 0
	.db #0x42	; 66	'B'
	.db #0x00	; 0
	.db #0x00	; 0
	.db #0x00	; 0
	.db #0x00	; 0
	.db #0x00	; 0
	.db #0x00	; 0
	.db #0x00	; 0
	.db #0x00	; 0
	.db #0x00	; 0
	.db #0x00	; 0
	.db #0x00	; 0
	.db #0x00	; 0
	.db #0x00	; 0
	.db #0x00	; 0
	.db #0x00	; 0
	.db #0x00	; 0
	.db #0x16	; 22
	.db #0x18	; 24
	.db #0x03	; 3
	.db #0x09	; 9
	.db #0x00	; 0
	.db #0x00	; 0
	.db #0x00	; 0
	.db #0x00	; 0
	.db #0x00	; 0
	.db #0x00	; 0
	.db #0x00	; 0
	.db #0x00	; 0
	.db #0x00	; 0
	.db #0x00	; 0
	.db #0x00	; 0
	.db #0x00	; 0
	.db #0x00	; 0
	.db #0x00	; 0
	.db #0x00	; 0
	.db #0x00	; 0
	.db #0x00	; 0
	.db #0x00	; 0
	.db #0x00	; 0
	.db #0x00	; 0
	.db #0x00	; 0
	.db #0x00	; 0
	.db #0x00	; 0
	.db #0x00	; 0
	.db #0x00	; 0
	.db #0x00	; 0
	.db #0x00	; 0
	.db #0x00	; 0
	.db #0x00	; 0
	.db #0x00	; 0
	.db #0x00	; 0
	.db #0x00	; 0
	.db #0x00	; 0
	.db #0x00	; 0
	.db #0x00	; 0
	.db #0x00	; 0
	.db #0x00	; 0
	.db #0x00	; 0
	.db #0x00	; 0
	.db #0x00	; 0
	.db #0x00	; 0
	.db #0x00	; 0
	.db #0x00	; 0
	.db #0x00	; 0
	.db #0x00	; 0
	.db #0x00	; 0
	.db #0x00	; 0
	.db #0x00	; 0
	.db #0x00	; 0
	.db #0x00	; 0
	.db #0x00	; 0
	.db #0x00	; 0
	.db #0x00	; 0
	.db #0x00	; 0
	.db #0x00	; 0
	.db #0x00	; 0
	.db #0x00	; 0
	.db #0x00	; 0
	.db #0x00	; 0
	.db #0x00	; 0
	.db #0x15	; 21
	.db #0x17	; 23
	.db #0x04	; 4
	.db #0x0a	; 10
	.db #0x00	; 0
	.db #0x00	; 0
	.db #0x00	; 0
	.db #0x00	; 0
	.db #0x00	; 0
	.db #0x00	; 0
	.db #0x00	; 0
	.db #0x00	; 0
	.db #0x00	; 0
	.db #0x00	; 0
	.db #0x00	; 0
	.db #0x00	; 0
	.db #0x00	; 0
	.db #0x00	; 0
	.db #0x00	; 0
	.db #0x00	; 0
	.db #0x00	; 0
	.db #0x00	; 0
	.db #0x00	; 0
	.db #0x00	; 0
	.db #0x00	; 0
	.db #0x00	; 0
	.db #0x00	; 0
	.db #0x00	; 0
	.db #0x00	; 0
	.db #0x00	; 0
	.db #0x00	; 0
	.db #0x00	; 0
	.db #0x00	; 0
	.db #0x00	; 0
	.db #0x00	; 0
	.db #0x00	; 0
	.db #0x00	; 0
	.db #0x00	; 0
	.db #0x00	; 0
	.db #0x00	; 0
	.db #0x00	; 0
	.db #0x00	; 0
	.db #0x00	; 0
	.db #0x00	; 0
	.db #0x00	; 0
	.db #0x00	; 0
	.db #0x00	; 0
	.db #0x00	; 0
	.db #0x00	; 0
	.db #0x00	; 0
	.db #0x00	; 0
	.db #0x00	; 0
	.db #0x00	; 0
	.db #0x00	; 0
	.db #0x00	; 0
	.db #0x00	; 0
	.db #0x00	; 0
	.db #0x00	; 0
	.db #0x00	; 0
	.db #0x00	; 0
	.db #0x00	; 0
	.db #0x00	; 0
	.db #0x00	; 0
	.db #0x00	; 0
	.db #0x16	; 22
	.db #0x18	; 24
	.db #0x03	; 3
	.db #0x09	; 9
	.db #0x00	; 0
	.db #0x00	; 0
	.db #0x00	; 0
	.db #0x00	; 0
	.db #0x00	; 0
	.db #0x00	; 0
	.db #0x00	; 0
	.db #0x00	; 0
	.db #0x00	; 0
	.db #0x00	; 0
	.db #0x00	; 0
	.db #0x00	; 0
	.db #0x00	; 0
	.db #0x00	; 0
	.db #0x00	; 0
	.db #0x00	; 0
	.db #0x00	; 0
	.db #0x00	; 0
	.db #0x00	; 0
	.db #0x00	; 0
	.db #0x00	; 0
	.db #0x00	; 0
	.db #0x00	; 0
	.db #0x00	; 0
	.db #0x00	; 0
	.db #0x00	; 0
	.db #0x00	; 0
	.db #0x00	; 0
	.db #0x00	; 0
	.db #0x00	; 0
	.db #0x00	; 0
	.db #0x00	; 0
	.db #0x00	; 0
	.db #0x00	; 0
	.db #0x00	; 0
	.db #0x00	; 0
	.db #0x00	; 0
	.db #0x00	; 0
	.db #0x00	; 0
	.db #0x00	; 0
	.db #0x00	; 0
	.db #0x00	; 0
	.db #0x00	; 0
	.db #0x00	; 0
	.db #0x00	; 0
	.db #0x00	; 0
	.db #0x00	; 0
	.db #0x00	; 0
	.db #0x00	; 0
	.db #0x00	; 0
	.db #0x00	; 0
	.db #0x00	; 0
	.db #0x00	; 0
	.db #0x00	; 0
	.db #0x00	; 0
	.db #0x00	; 0
	.db #0x00	; 0
	.db #0x00	; 0
	.db #0x00	; 0
	.db #0x00	; 0
	.db #0x15	; 21
	.db #0x17	; 23
	.db #0x04	; 4
	.db #0x0a	; 10
	.db #0x00	; 0
	.db #0x00	; 0
	.db #0x00	; 0
	.db #0x00	; 0
	.db #0x00	; 0
	.db #0x00	; 0
	.db #0x00	; 0
	.db #0x00	; 0
	.db #0x00	; 0
	.db #0x00	; 0
	.db #0x00	; 0
	.db #0x00	; 0
	.db #0x00	; 0
	.db #0x00	; 0
	.db #0x00	; 0
	.db #0x00	; 0
	.db #0x00	; 0
	.db #0x00	; 0
	.db #0x00	; 0
	.db #0x00	; 0
	.db #0x00	; 0
	.db #0x00	; 0
	.db #0x00	; 0
	.db #0x00	; 0
	.db #0x00	; 0
	.db #0x00	; 0
	.db #0x00	; 0
	.db #0x00	; 0
	.db #0x00	; 0
	.db #0x00	; 0
	.db #0x00	; 0
	.db #0x00	; 0
	.db #0x00	; 0
	.db #0x00	; 0
	.db #0x00	; 0
	.db #0x00	; 0
	.db #0x00	; 0
	.db #0x00	; 0
	.db #0x00	; 0
	.db #0x00	; 0
	.db #0x00	; 0
	.db #0x00	; 0
	.db #0x00	; 0
	.db #0x00	; 0
	.db #0x00	; 0
	.db #0x00	; 0
	.db #0x00	; 0
	.db #0x00	; 0
	.db #0x00	; 0
	.db #0x00	; 0
	.db #0x00	; 0
	.db #0x00	; 0
	.db #0x00	; 0
	.db #0x00	; 0
	.db #0x00	; 0
	.db #0x00	; 0
	.db #0x00	; 0
	.db #0x00	; 0
	.db #0x00	; 0
	.db #0x00	; 0
	.db #0x16	; 22
	.db #0x18	; 24
	.db #0x03	; 3
	.db #0x09	; 9
	.db #0x00	; 0
	.db #0x00	; 0
	.db #0x00	; 0
	.db #0x00	; 0
	.db #0x00	; 0
	.db #0x00	; 0
	.db #0x00	; 0
	.db #0x00	; 0
	.db #0x00	; 0
	.db #0x00	; 0
	.db #0x00	; 0
	.db #0x00	; 0
	.db #0x00	; 0
	.db #0x00	; 0
	.db #0x00	; 0
	.db #0x00	; 0
	.db #0x00	; 0
	.db #0x00	; 0
	.db #0x00	; 0
	.db #0x00	; 0
	.db #0x00	; 0
	.db #0x00	; 0
	.db #0x00	; 0
	.db #0x00	; 0
	.db #0x00	; 0
	.db #0x00	; 0
	.db #0x00	; 0
	.db #0x00	; 0
	.db #0x00	; 0
	.db #0x00	; 0
	.db #0x00	; 0
	.db #0x00	; 0
	.db #0x00	; 0
	.db #0x00	; 0
	.db #0x00	; 0
	.db #0x00	; 0
	.db #0x00	; 0
	.db #0x00	; 0
	.db #0x00	; 0
	.db #0x00	; 0
	.db #0x00	; 0
	.db #0x00	; 0
	.db #0x00	; 0
	.db #0x00	; 0
	.db #0x00	; 0
	.db #0x00	; 0
	.db #0x00	; 0
	.db #0x00	; 0
	.db #0x00	; 0
	.db #0x00	; 0
	.db #0x00	; 0
	.db #0x00	; 0
	.db #0x00	; 0
	.db #0x00	; 0
	.db #0x00	; 0
	.db #0x00	; 0
	.db #0x00	; 0
	.db #0x00	; 0
	.db #0x00	; 0
	.db #0x00	; 0
	.db #0x15	; 21
	.db #0x17	; 23
	.db #0x04	; 4
	.db #0x0a	; 10
	.db #0x00	; 0
	.db #0x00	; 0
	.db #0x00	; 0
	.db #0x00	; 0
	.db #0x00	; 0
	.db #0x00	; 0
	.db #0x00	; 0
	.db #0x00	; 0
	.db #0x00	; 0
	.db #0x00	; 0
	.db #0x49	; 73	'I'
	.db #0x41	; 65	'A'
	.db #0x3a	; 58
	.db #0x4d	; 77	'M'
	.db #0x46	; 70	'F'
	.db #0x3a	; 58
	.db #0x49	; 73	'I'
	.db #0x00	; 0
	.db #0x00	; 0
	.db #0x00	; 0
	.db #0x00	; 0
	.db #0x00	; 0
	.db #0x00	; 0
	.db #0x00	; 0
	.db #0x00	; 0
	.db #0x49	; 73	'I'
	.db #0x41	; 65	'A'
	.db #0x3a	; 58
	.db #0x4d	; 77	'M'
	.db #0x46	; 70	'F'
	.db #0x3a	; 58
	.db #0x49	; 73	'I'
	.db #0x00	; 0
	.db #0x00	; 0
	.db #0x00	; 0
	.db #0x00	; 0
	.db #0x00	; 0
	.db #0x00	; 0
	.db #0x00	; 0
	.db #0x00	; 0
	.db #0x49	; 73	'I'
	.db #0x41	; 65	'A'
	.db #0x3a	; 58
	.db #0x4d	; 77	'M'
	.db #0x46	; 70	'F'
	.db #0x3a	; 58
	.db #0x49	; 73	'I'
	.db #0x00	; 0
	.db #0x00	; 0
	.db #0x00	; 0
	.db #0x00	; 0
	.db #0x00	; 0
	.db #0x00	; 0
	.db #0x00	; 0
	.db #0x00	; 0
	.db #0x00	; 0
	.db #0x00	; 0
	.db #0x00	; 0
	.db #0x00	; 0
	.db #0x00	; 0
	.db #0x16	; 22
	.db #0x18	; 24
	.db #0x03	; 3
	.db #0x09	; 9
	.db #0x00	; 0
	.db #0x00	; 0
	.db #0x00	; 0
	.db #0x00	; 0
	.db #0x00	; 0
	.db #0x00	; 0
	.db #0x00	; 0
	.db #0x00	; 0
	.db #0x00	; 0
	.db #0x00	; 0
	.db #0x00	; 0
	.db #0x00	; 0
	.db #0x00	; 0
	.db #0x00	; 0
	.db #0x00	; 0
	.db #0x00	; 0
	.db #0x00	; 0
	.db #0x00	; 0
	.db #0x00	; 0
	.db #0x00	; 0
	.db #0x00	; 0
	.db #0x00	; 0
	.db #0x00	; 0
	.db #0x00	; 0
	.db #0x00	; 0
	.db #0x00	; 0
	.db #0x00	; 0
	.db #0x00	; 0
	.db #0x00	; 0
	.db #0x00	; 0
	.db #0x00	; 0
	.db #0x00	; 0
	.db #0x00	; 0
	.db #0x00	; 0
	.db #0x00	; 0
	.db #0x00	; 0
	.db #0x00	; 0
	.db #0x00	; 0
	.db #0x00	; 0
	.db #0x00	; 0
	.db #0x00	; 0
	.db #0x00	; 0
	.db #0x00	; 0
	.db #0x00	; 0
	.db #0x00	; 0
	.db #0x00	; 0
	.db #0x00	; 0
	.db #0x00	; 0
	.db #0x00	; 0
	.db #0x00	; 0
	.db #0x00	; 0
	.db #0x00	; 0
	.db #0x00	; 0
	.db #0x00	; 0
	.db #0x00	; 0
	.db #0x00	; 0
	.db #0x00	; 0
	.db #0x00	; 0
	.db #0x00	; 0
	.db #0x00	; 0
	.db #0x15	; 21
	.db #0x17	; 23
	.db #0x04	; 4
	.db #0x0a	; 10
	.db #0x00	; 0
	.db #0x00	; 0
	.db #0x00	; 0
	.db #0x00	; 0
	.db #0x00	; 0
	.db #0x00	; 0
	.db #0x00	; 0
	.db #0x00	; 0
	.db #0x00	; 0
	.db #0x00	; 0
	.db #0x00	; 0
	.db #0x00	; 0
	.db #0x00	; 0
	.db #0x43	; 67	'C'
	.db #0x00	; 0
	.db #0x00	; 0
	.db #0x00	; 0
	.db #0x00	; 0
	.db #0x00	; 0
	.db #0x00	; 0
	.db #0x00	; 0
	.db #0x00	; 0
	.db #0x00	; 0
	.db #0x00	; 0
	.db #0x00	; 0
	.db #0x00	; 0
	.db #0x00	; 0
	.db #0x00	; 0
	.db #0x44	; 68	'D'
	.db #0x00	; 0
	.db #0x00	; 0
	.db #0x00	; 0
	.db #0x00	; 0
	.db #0x00	; 0
	.db #0x00	; 0
	.db #0x00	; 0
	.db #0x00	; 0
	.db #0x00	; 0
	.db #0x00	; 0
	.db #0x00	; 0
	.db #0x00	; 0
	.db #0x00	; 0
	.db #0x00	; 0
	.db #0x45	; 69	'E'
	.db #0x00	; 0
	.db #0x00	; 0
	.db #0x00	; 0
	.db #0x00	; 0
	.db #0x00	; 0
	.db #0x00	; 0
	.db #0x00	; 0
	.db #0x00	; 0
	.db #0x00	; 0
	.db #0x00	; 0
	.db #0x00	; 0
	.db #0x00	; 0
	.db #0x00	; 0
	.db #0x00	; 0
	.db #0x00	; 0
	.db #0x00	; 0
	.db #0x16	; 22
	.db #0x18	; 24
	.db #0x03	; 3
	.db #0x09	; 9
	.db #0x00	; 0
	.db #0x00	; 0
	.db #0x00	; 0
	.db #0x00	; 0
	.db #0x00	; 0
	.db #0x00	; 0
	.db #0x00	; 0
	.db #0x00	; 0
	.db #0x00	; 0
	.db #0x00	; 0
	.db #0x00	; 0
	.db #0x00	; 0
	.db #0x00	; 0
	.db #0x00	; 0
	.db #0x00	; 0
	.db #0x00	; 0
	.db #0x00	; 0
	.db #0x00	; 0
	.db #0x00	; 0
	.db #0x00	; 0
	.db #0x00	; 0
	.db #0x00	; 0
	.db #0x00	; 0
	.db #0x00	; 0
	.db #0x00	; 0
	.db #0x00	; 0
	.db #0x00	; 0
	.db #0x00	; 0
	.db #0x00	; 0
	.db #0x00	; 0
	.db #0x00	; 0
	.db #0x00	; 0
	.db #0x00	; 0
	.db #0x00	; 0
	.db #0x00	; 0
	.db #0x00	; 0
	.db #0x00	; 0
	.db #0x00	; 0
	.db #0x00	; 0
	.db #0x00	; 0
	.db #0x00	; 0
	.db #0x00	; 0
	.db #0x00	; 0
	.db #0x00	; 0
	.db #0x00	; 0
	.db #0x00	; 0
	.db #0x00	; 0
	.db #0x00	; 0
	.db #0x00	; 0
	.db #0x00	; 0
	.db #0x00	; 0
	.db #0x00	; 0
	.db #0x00	; 0
	.db #0x00	; 0
	.db #0x00	; 0
	.db #0x00	; 0
	.db #0x00	; 0
	.db #0x00	; 0
	.db #0x00	; 0
	.db #0x00	; 0
	.db #0x15	; 21
	.db #0x17	; 23
	.db #0x04	; 4
	.db #0x0a	; 10
	.db #0x00	; 0
	.db #0x00	; 0
	.db #0x00	; 0
	.db #0x00	; 0
	.db #0x00	; 0
	.db #0x00	; 0
	.db #0x00	; 0
	.db #0x00	; 0
	.db #0x00	; 0
	.db #0x00	; 0
	.db #0x00	; 0
	.db #0x00	; 0
	.db #0x00	; 0
	.db #0x00	; 0
	.db #0x00	; 0
	.db #0x00	; 0
	.db #0x00	; 0
	.db #0x00	; 0
	.db #0x00	; 0
	.db #0x00	; 0
	.db #0x00	; 0
	.db #0x00	; 0
	.db #0x00	; 0
	.db #0x00	; 0
	.db #0x00	; 0
	.db #0x00	; 0
	.db #0x00	; 0
	.db #0x00	; 0
	.db #0x00	; 0
	.db #0x00	; 0
	.db #0x00	; 0
	.db #0x00	; 0
	.db #0x00	; 0
	.db #0x00	; 0
	.db #0x00	; 0
	.db #0x00	; 0
	.db #0x00	; 0
	.db #0x00	; 0
	.db #0x00	; 0
	.db #0x00	; 0
	.db #0x00	; 0
	.db #0x00	; 0
	.db #0x00	; 0
	.db #0x00	; 0
	.db #0x00	; 0
	.db #0x00	; 0
	.db #0x00	; 0
	.db #0x00	; 0
	.db #0x00	; 0
	.db #0x00	; 0
	.db #0x00	; 0
	.db #0x00	; 0
	.db #0x00	; 0
	.db #0x00	; 0
	.db #0x00	; 0
	.db #0x00	; 0
	.db #0x00	; 0
	.db #0x00	; 0
	.db #0x00	; 0
	.db #0x00	; 0
	.db #0x16	; 22
	.db #0x18	; 24
	.db #0x03	; 3
	.db #0x09	; 9
	.db #0x00	; 0
	.db #0x00	; 0
	.db #0x00	; 0
	.db #0x00	; 0
	.db #0x00	; 0
	.db #0x00	; 0
	.db #0x00	; 0
	.db #0x00	; 0
	.db #0x00	; 0
	.db #0x00	; 0
	.db #0x00	; 0
	.db #0x00	; 0
	.db #0x00	; 0
	.db #0x00	; 0
	.db #0x00	; 0
	.db #0x00	; 0
	.db #0x00	; 0
	.db #0x00	; 0
	.db #0x00	; 0
	.db #0x00	; 0
	.db #0x00	; 0
	.db #0x00	; 0
	.db #0x00	; 0
	.db #0x00	; 0
	.db #0x00	; 0
	.db #0x00	; 0
	.db #0x00	; 0
	.db #0x00	; 0
	.db #0x00	; 0
	.db #0x00	; 0
	.db #0x00	; 0
	.db #0x00	; 0
	.db #0x00	; 0
	.db #0x00	; 0
	.db #0x00	; 0
	.db #0x00	; 0
	.db #0x00	; 0
	.db #0x00	; 0
	.db #0x00	; 0
	.db #0x00	; 0
	.db #0x00	; 0
	.db #0x00	; 0
	.db #0x00	; 0
	.db #0x00	; 0
	.db #0x00	; 0
	.db #0x00	; 0
	.db #0x00	; 0
	.db #0x00	; 0
	.db #0x00	; 0
	.db #0x00	; 0
	.db #0x00	; 0
	.db #0x00	; 0
	.db #0x00	; 0
	.db #0x00	; 0
	.db #0x00	; 0
	.db #0x00	; 0
	.db #0x00	; 0
	.db #0x00	; 0
	.db #0x00	; 0
	.db #0x00	; 0
	.db #0x36	; 54	'6'
	.db #0x38	; 56	'8'
	.db #0x04	; 4
	.db #0x0a	; 10
	.db #0x00	; 0
	.db #0x00	; 0
	.db #0x00	; 0
	.db #0x00	; 0
	.db #0x00	; 0
	.db #0x00	; 0
	.db #0x00	; 0
	.db #0x00	; 0
	.db #0x00	; 0
	.db #0x00	; 0
	.db #0x00	; 0
	.db #0x00	; 0
	.db #0x00	; 0
	.db #0x00	; 0
	.db #0x00	; 0
	.db #0x00	; 0
	.db #0x00	; 0
	.db #0x00	; 0
	.db #0x00	; 0
	.db #0x00	; 0
	.db #0x00	; 0
	.db #0x00	; 0
	.db #0x00	; 0
	.db #0x00	; 0
	.db #0x00	; 0
	.db #0x00	; 0
	.db #0x00	; 0
	.db #0x00	; 0
	.db #0x00	; 0
	.db #0x00	; 0
	.db #0x00	; 0
	.db #0x00	; 0
	.db #0x00	; 0
	.db #0x00	; 0
	.db #0x00	; 0
	.db #0x00	; 0
	.db #0x00	; 0
	.db #0x00	; 0
	.db #0x00	; 0
	.db #0x00	; 0
	.db #0x00	; 0
	.db #0x00	; 0
	.db #0x00	; 0
	.db #0x00	; 0
	.db #0x00	; 0
	.db #0x00	; 0
	.db #0x00	; 0
	.db #0x00	; 0
	.db #0x00	; 0
	.db #0x00	; 0
	.db #0x00	; 0
	.db #0x00	; 0
	.db #0x00	; 0
	.db #0x00	; 0
	.db #0x00	; 0
	.db #0x00	; 0
	.db #0x00	; 0
	.db #0x00	; 0
	.db #0x00	; 0
	.db #0x00	; 0
	.db #0x37	; 55	'7'
	.db #0x39	; 57	'9'
	.db #0x03	; 3
	.db #0x09	; 9
	.db #0x00	; 0
	.db #0x00	; 0
	.db #0x00	; 0
	.db #0x00	; 0
	.db #0x00	; 0
	.db #0x00	; 0
	.db #0x00	; 0
	.db #0x00	; 0
	.db #0x00	; 0
	.db #0x00	; 0
	.db #0x00	; 0
	.db #0x00	; 0
	.db #0x00	; 0
	.db #0x00	; 0
	.db #0x00	; 0
	.db #0x00	; 0
	.db #0x00	; 0
	.db #0x00	; 0
	.db #0x00	; 0
	.db #0x00	; 0
	.db #0x00	; 0
	.db #0x00	; 0
	.db #0x00	; 0
	.db #0x00	; 0
	.db #0x00	; 0
	.db #0x00	; 0
	.db #0x00	; 0
	.db #0x00	; 0
	.db #0x00	; 0
	.db #0x00	; 0
	.db #0x00	; 0
	.db #0x00	; 0
	.db #0x00	; 0
	.db #0x00	; 0
	.db #0x00	; 0
	.db #0x00	; 0
	.db #0x00	; 0
	.db #0x00	; 0
	.db #0x00	; 0
	.db #0x00	; 0
	.db #0x00	; 0
	.db #0x00	; 0
	.db #0x00	; 0
	.db #0x00	; 0
	.db #0x00	; 0
	.db #0x00	; 0
	.db #0x00	; 0
	.db #0x00	; 0
	.db #0x00	; 0
	.db #0x00	; 0
	.db #0x00	; 0
	.db #0x00	; 0
	.db #0x00	; 0
	.db #0x00	; 0
	.db #0x00	; 0
	.db #0x00	; 0
	.db #0x00	; 0
	.db #0x00	; 0
	.db #0x00	; 0
	.db #0x00	; 0
	.db #0x15	; 21
	.db #0x17	; 23
	.db #0x04	; 4
	.db #0x0a	; 10
	.db #0x00	; 0
	.db #0x00	; 0
	.db #0x00	; 0
	.db #0x00	; 0
	.db #0x00	; 0
	.db #0x00	; 0
	.db #0x00	; 0
	.db #0x00	; 0
	.db #0x00	; 0
	.db #0x00	; 0
	.db #0x00	; 0
	.db #0x00	; 0
	.db #0x00	; 0
	.db #0x00	; 0
	.db #0x00	; 0
	.db #0x00	; 0
	.db #0x00	; 0
	.db #0x00	; 0
	.db #0x00	; 0
	.db #0x00	; 0
	.db #0x00	; 0
	.db #0x00	; 0
	.db #0x00	; 0
	.db #0x00	; 0
	.db #0x00	; 0
	.db #0x00	; 0
	.db #0x00	; 0
	.db #0x00	; 0
	.db #0x00	; 0
	.db #0x00	; 0
	.db #0x00	; 0
	.db #0x00	; 0
	.db #0x00	; 0
	.db #0x00	; 0
	.db #0x00	; 0
	.db #0x00	; 0
	.db #0x00	; 0
	.db #0x00	; 0
	.db #0x00	; 0
	.db #0x00	; 0
	.db #0x00	; 0
	.db #0x00	; 0
	.db #0x00	; 0
	.db #0x00	; 0
	.db #0x00	; 0
	.db #0x00	; 0
	.db #0x00	; 0
	.db #0x00	; 0
	.db #0x00	; 0
	.db #0x00	; 0
	.db #0x00	; 0
	.db #0x00	; 0
	.db #0x00	; 0
	.db #0x00	; 0
	.db #0x00	; 0
	.db #0x00	; 0
	.db #0x00	; 0
	.db #0x00	; 0
	.db #0x00	; 0
	.db #0x00	; 0
	.db #0x16	; 22
	.db #0x18	; 24
	.db #0x03	; 3
	.db #0x09	; 9
	.db #0x00	; 0
	.db #0x00	; 0
	.db #0x00	; 0
	.db #0x00	; 0
	.db #0x00	; 0
	.db #0x00	; 0
	.db #0x00	; 0
	.db #0x00	; 0
	.db #0x00	; 0
	.db #0x00	; 0
	.db #0x49	; 73	'I'
	.db #0x41	; 65	'A'
	.db #0x3a	; 58
	.db #0x4d	; 77	'M'
	.db #0x46	; 70	'F'
	.db #0x3a	; 58
	.db #0x49	; 73	'I'
	.db #0x00	; 0
	.db #0x00	; 0
	.db #0x00	; 0
	.db #0x00	; 0
	.db #0x00	; 0
	.db #0x00	; 0
	.db #0x00	; 0
	.db #0x00	; 0
	.db #0x49	; 73	'I'
	.db #0x41	; 65	'A'
	.db #0x3a	; 58
	.db #0x4d	; 77	'M'
	.db #0x46	; 70	'F'
	.db #0x3a	; 58
	.db #0x49	; 73	'I'
	.db #0x00	; 0
	.db #0x00	; 0
	.db #0x00	; 0
	.db #0x00	; 0
	.db #0x00	; 0
	.db #0x00	; 0
	.db #0x00	; 0
	.db #0x00	; 0
	.db #0x49	; 73	'I'
	.db #0x41	; 65	'A'
	.db #0x3a	; 58
	.db #0x4d	; 77	'M'
	.db #0x46	; 70	'F'
	.db #0x3a	; 58
	.db #0x49	; 73	'I'
	.db #0x00	; 0
	.db #0x00	; 0
	.db #0x00	; 0
	.db #0x00	; 0
	.db #0x00	; 0
	.db #0x00	; 0
	.db #0x00	; 0
	.db #0x00	; 0
	.db #0x00	; 0
	.db #0x00	; 0
	.db #0x00	; 0
	.db #0x00	; 0
	.db #0x00	; 0
	.db #0x15	; 21
	.db #0x17	; 23
	.db #0x04	; 4
	.db #0x0a	; 10
	.db #0x00	; 0
	.db #0x00	; 0
	.db #0x00	; 0
	.db #0x00	; 0
	.db #0x00	; 0
	.db #0x00	; 0
	.db #0x00	; 0
	.db #0x00	; 0
	.db #0x00	; 0
	.db #0x00	; 0
	.db #0x00	; 0
	.db #0x00	; 0
	.db #0x00	; 0
	.db #0x00	; 0
	.db #0x00	; 0
	.db #0x00	; 0
	.db #0x00	; 0
	.db #0x00	; 0
	.db #0x00	; 0
	.db #0x00	; 0
	.db #0x00	; 0
	.db #0x00	; 0
	.db #0x00	; 0
	.db #0x00	; 0
	.db #0x00	; 0
	.db #0x00	; 0
	.db #0x00	; 0
	.db #0x00	; 0
	.db #0x00	; 0
	.db #0x00	; 0
	.db #0x00	; 0
	.db #0x00	; 0
	.db #0x00	; 0
	.db #0x00	; 0
	.db #0x00	; 0
	.db #0x00	; 0
	.db #0x00	; 0
	.db #0x00	; 0
	.db #0x00	; 0
	.db #0x00	; 0
	.db #0x00	; 0
	.db #0x00	; 0
	.db #0x00	; 0
	.db #0x00	; 0
	.db #0x00	; 0
	.db #0x00	; 0
	.db #0x00	; 0
	.db #0x00	; 0
	.db #0x00	; 0
	.db #0x00	; 0
	.db #0x00	; 0
	.db #0x00	; 0
	.db #0x00	; 0
	.db #0x00	; 0
	.db #0x00	; 0
	.db #0x00	; 0
	.db #0x00	; 0
	.db #0x00	; 0
	.db #0x00	; 0
	.db #0x00	; 0
	.db #0x16	; 22
	.db #0x18	; 24
	.db #0x03	; 3
	.db #0x09	; 9
	.db #0x00	; 0
	.db #0x00	; 0
	.db #0x00	; 0
	.db #0x00	; 0
	.db #0x00	; 0
	.db #0x00	; 0
	.db #0x00	; 0
	.db #0x00	; 0
	.db #0x00	; 0
	.db #0x00	; 0
	.db #0x00	; 0
	.db #0x00	; 0
	.db #0x00	; 0
	.db #0x46	; 70	'F'
	.db #0x00	; 0
	.db #0x00	; 0
	.db #0x00	; 0
	.db #0x00	; 0
	.db #0x00	; 0
	.db #0x00	; 0
	.db #0x00	; 0
	.db #0x00	; 0
	.db #0x00	; 0
	.db #0x00	; 0
	.db #0x00	; 0
	.db #0x00	; 0
	.db #0x00	; 0
	.db #0x00	; 0
	.db #0x47	; 71	'G'
	.db #0x00	; 0
	.db #0x00	; 0
	.db #0x00	; 0
	.db #0x00	; 0
	.db #0x00	; 0
	.db #0x00	; 0
	.db #0x00	; 0
	.db #0x00	; 0
	.db #0x00	; 0
	.db #0x00	; 0
	.db #0x00	; 0
	.db #0x00	; 0
	.db #0x00	; 0
	.db #0x00	; 0
	.db #0x48	; 72	'H'
	.db #0x00	; 0
	.db #0x00	; 0
	.db #0x00	; 0
	.db #0x00	; 0
	.db #0x00	; 0
	.db #0x00	; 0
	.db #0x00	; 0
	.db #0x00	; 0
	.db #0x00	; 0
	.db #0x00	; 0
	.db #0x00	; 0
	.db #0x00	; 0
	.db #0x00	; 0
	.db #0x00	; 0
	.db #0x00	; 0
	.db #0x00	; 0
	.db #0x15	; 21
	.db #0x17	; 23
	.db #0x04	; 4
	.db #0x0a	; 10
	.db #0x00	; 0
	.db #0x00	; 0
	.db #0x00	; 0
	.db #0x00	; 0
	.db #0x00	; 0
	.db #0x00	; 0
	.db #0x00	; 0
	.db #0x00	; 0
	.db #0x00	; 0
	.db #0x00	; 0
	.db #0x00	; 0
	.db #0x00	; 0
	.db #0x00	; 0
	.db #0x00	; 0
	.db #0x00	; 0
	.db #0x00	; 0
	.db #0x00	; 0
	.db #0x00	; 0
	.db #0x00	; 0
	.db #0x00	; 0
	.db #0x00	; 0
	.db #0x00	; 0
	.db #0x00	; 0
	.db #0x00	; 0
	.db #0x00	; 0
	.db #0x00	; 0
	.db #0x00	; 0
	.db #0x00	; 0
	.db #0x00	; 0
	.db #0x00	; 0
	.db #0x00	; 0
	.db #0x00	; 0
	.db #0x00	; 0
	.db #0x00	; 0
	.db #0x00	; 0
	.db #0x00	; 0
	.db #0x00	; 0
	.db #0x00	; 0
	.db #0x00	; 0
	.db #0x00	; 0
	.db #0x00	; 0
	.db #0x00	; 0
	.db #0x00	; 0
	.db #0x00	; 0
	.db #0x00	; 0
	.db #0x00	; 0
	.db #0x00	; 0
	.db #0x00	; 0
	.db #0x00	; 0
	.db #0x00	; 0
	.db #0x00	; 0
	.db #0x00	; 0
	.db #0x00	; 0
	.db #0x00	; 0
	.db #0x00	; 0
	.db #0x00	; 0
	.db #0x00	; 0
	.db #0x00	; 0
	.db #0x00	; 0
	.db #0x00	; 0
	.db #0x16	; 22
	.db #0x18	; 24
	.db #0x03	; 3
	.db #0x09	; 9
	.db #0x00	; 0
	.db #0x00	; 0
	.db #0x00	; 0
	.db #0x00	; 0
	.db #0x00	; 0
	.db #0x00	; 0
	.db #0x00	; 0
	.db #0x00	; 0
	.db #0x00	; 0
	.db #0x00	; 0
	.db #0x00	; 0
	.db #0x00	; 0
	.db #0x00	; 0
	.db #0x00	; 0
	.db #0x00	; 0
	.db #0x00	; 0
	.db #0x00	; 0
	.db #0x00	; 0
	.db #0x00	; 0
	.db #0x00	; 0
	.db #0x00	; 0
	.db #0x00	; 0
	.db #0x00	; 0
	.db #0x00	; 0
	.db #0x00	; 0
	.db #0x00	; 0
	.db #0x00	; 0
	.db #0x00	; 0
	.db #0x00	; 0
	.db #0x00	; 0
	.db #0x00	; 0
	.db #0x00	; 0
	.db #0x00	; 0
	.db #0x00	; 0
	.db #0x00	; 0
	.db #0x00	; 0
	.db #0x00	; 0
	.db #0x00	; 0
	.db #0x00	; 0
	.db #0x00	; 0
	.db #0x00	; 0
	.db #0x00	; 0
	.db #0x00	; 0
	.db #0x00	; 0
	.db #0x00	; 0
	.db #0x00	; 0
	.db #0x00	; 0
	.db #0x00	; 0
	.db #0x00	; 0
	.db #0x00	; 0
	.db #0x00	; 0
	.db #0x00	; 0
	.db #0x00	; 0
	.db #0x00	; 0
	.db #0x00	; 0
	.db #0x00	; 0
	.db #0x00	; 0
	.db #0x00	; 0
	.db #0x00	; 0
	.db #0x00	; 0
	.db #0x15	; 21
	.db #0x17	; 23
	.db #0x04	; 4
	.db #0x0a	; 10
	.db #0x00	; 0
	.db #0x00	; 0
	.db #0x00	; 0
	.db #0x00	; 0
	.db #0x00	; 0
	.db #0x00	; 0
	.db #0x00	; 0
	.db #0x00	; 0
	.db #0x00	; 0
	.db #0x00	; 0
	.db #0x00	; 0
	.db #0x00	; 0
	.db #0x00	; 0
	.db #0x00	; 0
	.db #0x00	; 0
	.db #0x00	; 0
	.db #0x00	; 0
	.db #0x00	; 0
	.db #0x00	; 0
	.db #0x00	; 0
	.db #0x00	; 0
	.db #0x00	; 0
	.db #0x00	; 0
	.db #0x00	; 0
	.db #0x00	; 0
	.db #0x00	; 0
	.db #0x00	; 0
	.db #0x00	; 0
	.db #0x00	; 0
	.db #0x00	; 0
	.db #0x00	; 0
	.db #0x00	; 0
	.db #0x00	; 0
	.db #0x00	; 0
	.db #0x00	; 0
	.db #0x00	; 0
	.db #0x00	; 0
	.db #0x00	; 0
	.db #0x00	; 0
	.db #0x00	; 0
	.db #0x00	; 0
	.db #0x00	; 0
	.db #0x00	; 0
	.db #0x00	; 0
	.db #0x00	; 0
	.db #0x00	; 0
	.db #0x00	; 0
	.db #0x00	; 0
	.db #0x00	; 0
	.db #0x00	; 0
	.db #0x00	; 0
	.db #0x00	; 0
	.db #0x00	; 0
	.db #0x00	; 0
	.db #0x00	; 0
	.db #0x00	; 0
	.db #0x00	; 0
	.db #0x00	; 0
	.db #0x00	; 0
	.db #0x00	; 0
	.db #0x16	; 22
	.db #0x18	; 24
	.db #0x03	; 3
	.db #0x09	; 9
	.db #0x00	; 0
	.db #0x00	; 0
	.db #0x00	; 0
	.db #0x00	; 0
	.db #0x00	; 0
	.db #0x00	; 0
	.db #0x00	; 0
	.db #0x00	; 0
	.db #0x00	; 0
	.db #0x00	; 0
	.db #0x00	; 0
	.db #0x00	; 0
	.db #0x00	; 0
	.db #0x00	; 0
	.db #0x00	; 0
	.db #0x00	; 0
	.db #0x00	; 0
	.db #0x00	; 0
	.db #0x00	; 0
	.db #0x00	; 0
	.db #0x00	; 0
	.db #0x00	; 0
	.db #0x00	; 0
	.db #0x00	; 0
	.db #0x00	; 0
	.db #0x00	; 0
	.db #0x00	; 0
	.db #0x00	; 0
	.db #0x00	; 0
	.db #0x00	; 0
	.db #0x00	; 0
	.db #0x00	; 0
	.db #0x00	; 0
	.db #0x00	; 0
	.db #0x00	; 0
	.db #0x00	; 0
	.db #0x00	; 0
	.db #0x00	; 0
	.db #0x00	; 0
	.db #0x00	; 0
	.db #0x00	; 0
	.db #0x00	; 0
	.db #0x00	; 0
	.db #0x00	; 0
	.db #0x00	; 0
	.db #0x00	; 0
	.db #0x00	; 0
	.db #0x00	; 0
	.db #0x00	; 0
	.db #0x00	; 0
	.db #0x00	; 0
	.db #0x00	; 0
	.db #0x00	; 0
	.db #0x00	; 0
	.db #0x00	; 0
	.db #0x00	; 0
	.db #0x00	; 0
	.db #0x00	; 0
	.db #0x00	; 0
	.db #0x00	; 0
	.db #0x15	; 21
	.db #0x17	; 23
	.db #0x04	; 4
	.db #0x0a	; 10
	.db #0x00	; 0
	.db #0x00	; 0
	.db #0x00	; 0
	.db #0x00	; 0
	.db #0x00	; 0
	.db #0x00	; 0
	.db #0x00	; 0
	.db #0x00	; 0
	.db #0x00	; 0
	.db #0x00	; 0
	.db #0x00	; 0
	.db #0x00	; 0
	.db #0x00	; 0
	.db #0x00	; 0
	.db #0x00	; 0
	.db #0x00	; 0
	.db #0x00	; 0
	.db #0x00	; 0
	.db #0x00	; 0
	.db #0x00	; 0
	.db #0x00	; 0
	.db #0x00	; 0
	.db #0x00	; 0
	.db #0x00	; 0
	.db #0x00	; 0
	.db #0x00	; 0
	.db #0x00	; 0
	.db #0x00	; 0
	.db #0x00	; 0
	.db #0x00	; 0
	.db #0x00	; 0
	.db #0x00	; 0
	.db #0x00	; 0
	.db #0x00	; 0
	.db #0x00	; 0
	.db #0x00	; 0
	.db #0x00	; 0
	.db #0x00	; 0
	.db #0x00	; 0
	.db #0x00	; 0
	.db #0x00	; 0
	.db #0x00	; 0
	.db #0x00	; 0
	.db #0x00	; 0
	.db #0x00	; 0
	.db #0x00	; 0
	.db #0x00	; 0
	.db #0x00	; 0
	.db #0x00	; 0
	.db #0x00	; 0
	.db #0x00	; 0
	.db #0x00	; 0
	.db #0x00	; 0
	.db #0x00	; 0
	.db #0x00	; 0
	.db #0x00	; 0
	.db #0x00	; 0
	.db #0x00	; 0
	.db #0x00	; 0
	.db #0x00	; 0
	.db #0x16	; 22
	.db #0x18	; 24
	.db #0x03	; 3
	.db #0x09	; 9
	.db #0x00	; 0
	.db #0x00	; 0
	.db #0x00	; 0
	.db #0x00	; 0
	.db #0x00	; 0
	.db #0x00	; 0
	.db #0x00	; 0
	.db #0x00	; 0
	.db #0x00	; 0
	.db #0x00	; 0
	.db #0x00	; 0
	.db #0x00	; 0
	.db #0x00	; 0
	.db #0x00	; 0
	.db #0x00	; 0
	.db #0x00	; 0
	.db #0x00	; 0
	.db #0x00	; 0
	.db #0x00	; 0
	.db #0x00	; 0
	.db #0x00	; 0
	.db #0x00	; 0
	.db #0x00	; 0
	.db #0x00	; 0
	.db #0x00	; 0
	.db #0x00	; 0
	.db #0x00	; 0
	.db #0x00	; 0
	.db #0x00	; 0
	.db #0x00	; 0
	.db #0x00	; 0
	.db #0x00	; 0
	.db #0x00	; 0
	.db #0x00	; 0
	.db #0x00	; 0
	.db #0x00	; 0
	.db #0x00	; 0
	.db #0x00	; 0
	.db #0x00	; 0
	.db #0x00	; 0
	.db #0x00	; 0
	.db #0x00	; 0
	.db #0x00	; 0
	.db #0x00	; 0
	.db #0x00	; 0
	.db #0x00	; 0
	.db #0x00	; 0
	.db #0x00	; 0
	.db #0x00	; 0
	.db #0x00	; 0
	.db #0x00	; 0
	.db #0x00	; 0
	.db #0x00	; 0
	.db #0x00	; 0
	.db #0x00	; 0
	.db #0x00	; 0
	.db #0x00	; 0
	.db #0x00	; 0
	.db #0x00	; 0
	.db #0x00	; 0
	.db #0x15	; 21
	.db #0x17	; 23
	.db #0x04	; 4
	.db #0x0a	; 10
	.db #0x00	; 0
	.db #0x00	; 0
	.db #0x00	; 0
	.db #0x00	; 0
	.db #0x00	; 0
	.db #0x00	; 0
	.db #0x00	; 0
	.db #0x00	; 0
	.db #0x00	; 0
	.db #0x00	; 0
	.db #0x00	; 0
	.db #0x00	; 0
	.db #0x00	; 0
	.db #0x00	; 0
	.db #0x00	; 0
	.db #0x00	; 0
	.db #0x00	; 0
	.db #0x00	; 0
	.db #0x00	; 0
	.db #0x00	; 0
	.db #0x00	; 0
	.db #0x00	; 0
	.db #0x00	; 0
	.db #0x00	; 0
	.db #0x00	; 0
	.db #0x00	; 0
	.db #0x00	; 0
	.db #0x00	; 0
	.db #0x00	; 0
	.db #0x00	; 0
	.db #0x00	; 0
	.db #0x00	; 0
	.db #0x00	; 0
	.db #0x00	; 0
	.db #0x00	; 0
	.db #0x00	; 0
	.db #0x00	; 0
	.db #0x00	; 0
	.db #0x00	; 0
	.db #0x00	; 0
	.db #0x00	; 0
	.db #0x00	; 0
	.db #0x00	; 0
	.db #0x00	; 0
	.db #0x00	; 0
	.db #0x00	; 0
	.db #0x00	; 0
	.db #0x00	; 0
	.db #0x00	; 0
	.db #0x00	; 0
	.db #0x00	; 0
	.db #0x00	; 0
	.db #0x00	; 0
	.db #0x00	; 0
	.db #0x00	; 0
	.db #0x00	; 0
	.db #0x00	; 0
	.db #0x00	; 0
	.db #0x00	; 0
	.db #0x00	; 0
	.db #0x16	; 22
	.db #0x18	; 24
	.db #0x03	; 3
	.db #0x09	; 9
	.db #0x00	; 0
	.db #0x00	; 0
	.db #0x00	; 0
	.db #0x00	; 0
	.db #0x00	; 0
	.db #0x00	; 0
	.db #0x00	; 0
	.db #0x00	; 0
	.db #0x00	; 0
	.db #0x00	; 0
	.db #0x49	; 73	'I'
	.db #0x41	; 65	'A'
	.db #0x3a	; 58
	.db #0x4d	; 77	'M'
	.db #0x46	; 70	'F'
	.db #0x3a	; 58
	.db #0x49	; 73	'I'
	.db #0x00	; 0
	.db #0x00	; 0
	.db #0x00	; 0
	.db #0x00	; 0
	.db #0x00	; 0
	.db #0x00	; 0
	.db #0x00	; 0
	.db #0x00	; 0
	.db #0x49	; 73	'I'
	.db #0x41	; 65	'A'
	.db #0x3a	; 58
	.db #0x4d	; 77	'M'
	.db #0x46	; 70	'F'
	.db #0x3a	; 58
	.db #0x49	; 73	'I'
	.db #0x00	; 0
	.db #0x00	; 0
	.db #0x00	; 0
	.db #0x00	; 0
	.db #0x00	; 0
	.db #0x00	; 0
	.db #0x00	; 0
	.db #0x00	; 0
	.db #0x49	; 73	'I'
	.db #0x41	; 65	'A'
	.db #0x3a	; 58
	.db #0x4d	; 77	'M'
	.db #0x46	; 70	'F'
	.db #0x3a	; 58
	.db #0x49	; 73	'I'
	.db #0x00	; 0
	.db #0x00	; 0
	.db #0x00	; 0
	.db #0x00	; 0
	.db #0x00	; 0
	.db #0x00	; 0
	.db #0x00	; 0
	.db #0x00	; 0
	.db #0x00	; 0
	.db #0x00	; 0
	.db #0x00	; 0
	.db #0x00	; 0
	.db #0x00	; 0
	.db #0x36	; 54	'6'
	.db #0x38	; 56	'8'
	.db #0x04	; 4
	.db #0x0a	; 10
	.db #0x00	; 0
	.db #0x00	; 0
	.db #0x00	; 0
	.db #0x00	; 0
	.db #0x00	; 0
	.db #0x00	; 0
	.db #0x00	; 0
	.db #0x00	; 0
	.db #0x00	; 0
	.db #0x00	; 0
	.db #0x00	; 0
	.db #0x00	; 0
	.db #0x00	; 0
	.db #0x00	; 0
	.db #0x00	; 0
	.db #0x00	; 0
	.db #0x00	; 0
	.db #0x00	; 0
	.db #0x00	; 0
	.db #0x00	; 0
	.db #0x00	; 0
	.db #0x00	; 0
	.db #0x00	; 0
	.db #0x00	; 0
	.db #0x00	; 0
	.db #0x00	; 0
	.db #0x00	; 0
	.db #0x00	; 0
	.db #0x00	; 0
	.db #0x00	; 0
	.db #0x00	; 0
	.db #0x00	; 0
	.db #0x00	; 0
	.db #0x00	; 0
	.db #0x00	; 0
	.db #0x00	; 0
	.db #0x00	; 0
	.db #0x00	; 0
	.db #0x00	; 0
	.db #0x00	; 0
	.db #0x00	; 0
	.db #0x00	; 0
	.db #0x00	; 0
	.db #0x00	; 0
	.db #0x00	; 0
	.db #0x00	; 0
	.db #0x00	; 0
	.db #0x00	; 0
	.db #0x00	; 0
	.db #0x00	; 0
	.db #0x00	; 0
	.db #0x00	; 0
	.db #0x00	; 0
	.db #0x00	; 0
	.db #0x00	; 0
	.db #0x00	; 0
	.db #0x00	; 0
	.db #0x00	; 0
	.db #0x00	; 0
	.db #0x00	; 0
	.db #0x37	; 55	'7'
	.db #0x39	; 57	'9'
	.db #0x03	; 3
	.db #0x09	; 9
	.db #0x00	; 0
	.db #0x00	; 0
	.db #0x00	; 0
	.db #0x00	; 0
	.db #0x00	; 0
	.db #0x00	; 0
	.db #0x00	; 0
	.db #0x00	; 0
	.db #0x00	; 0
	.db #0x00	; 0
	.db #0x00	; 0
	.db #0x00	; 0
	.db #0x00	; 0
	.db #0x49	; 73	'I'
	.db #0x00	; 0
	.db #0x00	; 0
	.db #0x00	; 0
	.db #0x00	; 0
	.db #0x00	; 0
	.db #0x00	; 0
	.db #0x00	; 0
	.db #0x00	; 0
	.db #0x00	; 0
	.db #0x00	; 0
	.db #0x00	; 0
	.db #0x00	; 0
	.db #0x00	; 0
	.db #0x00	; 0
	.db #0x4a	; 74	'J'
	.db #0x00	; 0
	.db #0x00	; 0
	.db #0x00	; 0
	.db #0x00	; 0
	.db #0x00	; 0
	.db #0x00	; 0
	.db #0x00	; 0
	.db #0x00	; 0
	.db #0x00	; 0
	.db #0x00	; 0
	.db #0x00	; 0
	.db #0x00	; 0
	.db #0x00	; 0
	.db #0x00	; 0
	.db #0x4b	; 75	'K'
	.db #0x00	; 0
	.db #0x00	; 0
	.db #0x00	; 0
	.db #0x00	; 0
	.db #0x00	; 0
	.db #0x00	; 0
	.db #0x00	; 0
	.db #0x00	; 0
	.db #0x00	; 0
	.db #0x00	; 0
	.db #0x00	; 0
	.db #0x00	; 0
	.db #0x00	; 0
	.db #0x00	; 0
	.db #0x00	; 0
	.db #0x00	; 0
	.db #0x15	; 21
	.db #0x17	; 23
	.db #0x04	; 4
	.db #0x0a	; 10
	.db #0x00	; 0
	.db #0x00	; 0
	.db #0x00	; 0
	.db #0x00	; 0
	.db #0x00	; 0
	.db #0x00	; 0
	.db #0x00	; 0
	.db #0x00	; 0
	.db #0x00	; 0
	.db #0x00	; 0
	.db #0x00	; 0
	.db #0x00	; 0
	.db #0x00	; 0
	.db #0x00	; 0
	.db #0x00	; 0
	.db #0x00	; 0
	.db #0x00	; 0
	.db #0x00	; 0
	.db #0x00	; 0
	.db #0x00	; 0
	.db #0x00	; 0
	.db #0x00	; 0
	.db #0x00	; 0
	.db #0x00	; 0
	.db #0x00	; 0
	.db #0x00	; 0
	.db #0x00	; 0
	.db #0x00	; 0
	.db #0x00	; 0
	.db #0x00	; 0
	.db #0x00	; 0
	.db #0x00	; 0
	.db #0x00	; 0
	.db #0x00	; 0
	.db #0x00	; 0
	.db #0x00	; 0
	.db #0x00	; 0
	.db #0x00	; 0
	.db #0x00	; 0
	.db #0x00	; 0
	.db #0x00	; 0
	.db #0x00	; 0
	.db #0x00	; 0
	.db #0x00	; 0
	.db #0x00	; 0
	.db #0x00	; 0
	.db #0x00	; 0
	.db #0x00	; 0
	.db #0x00	; 0
	.db #0x00	; 0
	.db #0x00	; 0
	.db #0x00	; 0
	.db #0x00	; 0
	.db #0x00	; 0
	.db #0x00	; 0
	.db #0x00	; 0
	.db #0x00	; 0
	.db #0x00	; 0
	.db #0x00	; 0
	.db #0x00	; 0
	.db #0x16	; 22
	.db #0x18	; 24
	.db #0x03	; 3
	.db #0x09	; 9
	.db #0x00	; 0
	.db #0x00	; 0
	.db #0x00	; 0
	.db #0x00	; 0
	.db #0x00	; 0
	.db #0x00	; 0
	.db #0x00	; 0
	.db #0x00	; 0
	.db #0x00	; 0
	.db #0x00	; 0
	.db #0x00	; 0
	.db #0x00	; 0
	.db #0x00	; 0
	.db #0x00	; 0
	.db #0x00	; 0
	.db #0x00	; 0
	.db #0x00	; 0
	.db #0x00	; 0
	.db #0x00	; 0
	.db #0x00	; 0
	.db #0x00	; 0
	.db #0x00	; 0
	.db #0x00	; 0
	.db #0x00	; 0
	.db #0x00	; 0
	.db #0x00	; 0
	.db #0x00	; 0
	.db #0x00	; 0
	.db #0x00	; 0
	.db #0x00	; 0
	.db #0x00	; 0
	.db #0x00	; 0
	.db #0x00	; 0
	.db #0x00	; 0
	.db #0x00	; 0
	.db #0x00	; 0
	.db #0x00	; 0
	.db #0x00	; 0
	.db #0x00	; 0
	.db #0x00	; 0
	.db #0x00	; 0
	.db #0x00	; 0
	.db #0x00	; 0
	.db #0x00	; 0
	.db #0x00	; 0
	.db #0x00	; 0
	.db #0x00	; 0
	.db #0x00	; 0
	.db #0x00	; 0
	.db #0x00	; 0
	.db #0x00	; 0
	.db #0x00	; 0
	.db #0x00	; 0
	.db #0x00	; 0
	.db #0x00	; 0
	.db #0x00	; 0
	.db #0x00	; 0
	.db #0x00	; 0
	.db #0x00	; 0
	.db #0x00	; 0
	.db #0x15	; 21
	.db #0x17	; 23
	.db #0x04	; 4
	.db #0x0a	; 10
	.db #0x00	; 0
	.db #0x00	; 0
	.db #0x00	; 0
	.db #0x00	; 0
	.db #0x00	; 0
	.db #0x00	; 0
	.db #0x00	; 0
	.db #0x00	; 0
	.db #0x00	; 0
	.db #0x00	; 0
	.db #0x00	; 0
	.db #0x00	; 0
	.db #0x00	; 0
	.db #0x00	; 0
	.db #0x00	; 0
	.db #0x00	; 0
	.db #0x00	; 0
	.db #0x00	; 0
	.db #0x00	; 0
	.db #0x00	; 0
	.db #0x00	; 0
	.db #0x00	; 0
	.db #0x00	; 0
	.db #0x00	; 0
	.db #0x00	; 0
	.db #0x00	; 0
	.db #0x00	; 0
	.db #0x00	; 0
	.db #0x00	; 0
	.db #0x00	; 0
	.db #0x00	; 0
	.db #0x00	; 0
	.db #0x00	; 0
	.db #0x00	; 0
	.db #0x00	; 0
	.db #0x00	; 0
	.db #0x00	; 0
	.db #0x00	; 0
	.db #0x00	; 0
	.db #0x00	; 0
	.db #0x00	; 0
	.db #0x00	; 0
	.db #0x00	; 0
	.db #0x00	; 0
	.db #0x00	; 0
	.db #0x00	; 0
	.db #0x00	; 0
	.db #0x00	; 0
	.db #0x00	; 0
	.db #0x00	; 0
	.db #0x00	; 0
	.db #0x00	; 0
	.db #0x00	; 0
	.db #0x00	; 0
	.db #0x00	; 0
	.db #0x00	; 0
	.db #0x00	; 0
	.db #0x00	; 0
	.db #0x00	; 0
	.db #0x00	; 0
	.db #0x16	; 22
	.db #0x18	; 24
	.db #0x03	; 3
	.db #0x09	; 9
	.db #0x00	; 0
	.db #0x00	; 0
	.db #0x00	; 0
	.db #0x00	; 0
	.db #0x00	; 0
	.db #0x00	; 0
	.db #0x00	; 0
	.db #0x00	; 0
	.db #0x00	; 0
	.db #0x00	; 0
	.db #0x00	; 0
	.db #0x00	; 0
	.db #0x00	; 0
	.db #0x00	; 0
	.db #0x00	; 0
	.db #0x00	; 0
	.db #0x00	; 0
	.db #0x00	; 0
	.db #0x00	; 0
	.db #0x00	; 0
	.db #0x00	; 0
	.db #0x00	; 0
	.db #0x00	; 0
	.db #0x00	; 0
	.db #0x00	; 0
	.db #0x00	; 0
	.db #0x00	; 0
	.db #0x00	; 0
	.db #0x00	; 0
	.db #0x00	; 0
	.db #0x00	; 0
	.db #0x00	; 0
	.db #0x00	; 0
	.db #0x00	; 0
	.db #0x00	; 0
	.db #0x00	; 0
	.db #0x00	; 0
	.db #0x00	; 0
	.db #0x00	; 0
	.db #0x00	; 0
	.db #0x00	; 0
	.db #0x00	; 0
	.db #0x00	; 0
	.db #0x00	; 0
	.db #0x00	; 0
	.db #0x00	; 0
	.db #0x00	; 0
	.db #0x00	; 0
	.db #0x00	; 0
	.db #0x00	; 0
	.db #0x00	; 0
	.db #0x00	; 0
	.db #0x00	; 0
	.db #0x00	; 0
	.db #0x00	; 0
	.db #0x00	; 0
	.db #0x00	; 0
	.db #0x00	; 0
	.db #0x00	; 0
	.db #0x00	; 0
	.db #0x15	; 21
	.db #0x17	; 23
	.db #0x04	; 4
	.db #0x0a	; 10
	.db #0x00	; 0
	.db #0x00	; 0
	.db #0x00	; 0
	.db #0x00	; 0
	.db #0x00	; 0
	.db #0x00	; 0
	.db #0x00	; 0
	.db #0x00	; 0
	.db #0x00	; 0
	.db #0x00	; 0
	.db #0x00	; 0
	.db #0x00	; 0
	.db #0x00	; 0
	.db #0x00	; 0
	.db #0x00	; 0
	.db #0x00	; 0
	.db #0x00	; 0
	.db #0x00	; 0
	.db #0x00	; 0
	.db #0x00	; 0
	.db #0x00	; 0
	.db #0x00	; 0
	.db #0x00	; 0
	.db #0x00	; 0
	.db #0x00	; 0
	.db #0x00	; 0
	.db #0x00	; 0
	.db #0x00	; 0
	.db #0x00	; 0
	.db #0x00	; 0
	.db #0x00	; 0
	.db #0x00	; 0
	.db #0x00	; 0
	.db #0x00	; 0
	.db #0x00	; 0
	.db #0x00	; 0
	.db #0x00	; 0
	.db #0x00	; 0
	.db #0x00	; 0
	.db #0x00	; 0
	.db #0x00	; 0
	.db #0x00	; 0
	.db #0x00	; 0
	.db #0x00	; 0
	.db #0x00	; 0
	.db #0x00	; 0
	.db #0x00	; 0
	.db #0x00	; 0
	.db #0x00	; 0
	.db #0x00	; 0
	.db #0x00	; 0
	.db #0x00	; 0
	.db #0x00	; 0
	.db #0x00	; 0
	.db #0x00	; 0
	.db #0x00	; 0
	.db #0x00	; 0
	.db #0x00	; 0
	.db #0x00	; 0
	.db #0x00	; 0
	.db #0x16	; 22
	.db #0x18	; 24
	.db #0x03	; 3
	.db #0x09	; 9
	.db #0x00	; 0
	.db #0x00	; 0
	.db #0x00	; 0
	.db #0x00	; 0
	.db #0x00	; 0
	.db #0x00	; 0
	.db #0x00	; 0
	.db #0x00	; 0
	.db #0x00	; 0
	.db #0x00	; 0
	.db #0x00	; 0
	.db #0x00	; 0
	.db #0x00	; 0
	.db #0x00	; 0
	.db #0x00	; 0
	.db #0x00	; 0
	.db #0x00	; 0
	.db #0x00	; 0
	.db #0x00	; 0
	.db #0x00	; 0
	.db #0x00	; 0
	.db #0x00	; 0
	.db #0x00	; 0
	.db #0x00	; 0
	.db #0x00	; 0
	.db #0x00	; 0
	.db #0x00	; 0
	.db #0x00	; 0
	.db #0x00	; 0
	.db #0x00	; 0
	.db #0x00	; 0
	.db #0x00	; 0
	.db #0x00	; 0
	.db #0x00	; 0
	.db #0x00	; 0
	.db #0x00	; 0
	.db #0x00	; 0
	.db #0x00	; 0
	.db #0x00	; 0
	.db #0x00	; 0
	.db #0x00	; 0
	.db #0x00	; 0
	.db #0x00	; 0
	.db #0x00	; 0
	.db #0x00	; 0
	.db #0x00	; 0
	.db #0x00	; 0
	.db #0x00	; 0
	.db #0x00	; 0
	.db #0x00	; 0
	.db #0x00	; 0
	.db #0x00	; 0
	.db #0x00	; 0
	.db #0x00	; 0
	.db #0x00	; 0
	.db #0x00	; 0
	.db #0x00	; 0
	.db #0x00	; 0
	.db #0x00	; 0
	.db #0x00	; 0
	.db #0x15	; 21
	.db #0x17	; 23
	.db #0x04	; 4
	.db #0x0a	; 10
	.db #0x00	; 0
	.db #0x00	; 0
	.db #0x00	; 0
	.db #0x00	; 0
	.db #0x00	; 0
	.db #0x00	; 0
	.db #0x00	; 0
	.db #0x00	; 0
	.db #0x00	; 0
	.db #0x00	; 0
	.db #0x00	; 0
	.db #0x00	; 0
	.db #0x00	; 0
	.db #0x00	; 0
	.db #0x00	; 0
	.db #0x00	; 0
	.db #0x00	; 0
	.db #0x00	; 0
	.db #0x00	; 0
	.db #0x00	; 0
	.db #0x00	; 0
	.db #0x00	; 0
	.db #0x00	; 0
	.db #0x00	; 0
	.db #0x00	; 0
	.db #0x00	; 0
	.db #0x00	; 0
	.db #0x00	; 0
	.db #0x00	; 0
	.db #0x00	; 0
	.db #0x00	; 0
	.db #0x00	; 0
	.db #0x00	; 0
	.db #0x00	; 0
	.db #0x00	; 0
	.db #0x00	; 0
	.db #0x00	; 0
	.db #0x00	; 0
	.db #0x00	; 0
	.db #0x00	; 0
	.db #0x00	; 0
	.db #0x00	; 0
	.db #0x00	; 0
	.db #0x00	; 0
	.db #0x00	; 0
	.db #0x00	; 0
	.db #0x00	; 0
	.db #0x00	; 0
	.db #0x00	; 0
	.db #0x00	; 0
	.db #0x00	; 0
	.db #0x00	; 0
	.db #0x00	; 0
	.db #0x00	; 0
	.db #0x00	; 0
	.db #0x00	; 0
	.db #0x00	; 0
	.db #0x00	; 0
	.db #0x00	; 0
	.db #0x00	; 0
	.db #0x16	; 22
	.db #0x18	; 24
	.db #0x03	; 3
	.db #0x09	; 9
	.db #0x00	; 0
	.db #0x00	; 0
	.db #0x00	; 0
	.db #0x00	; 0
	.db #0x00	; 0
	.db #0x00	; 0
	.db #0x00	; 0
	.db #0x00	; 0
	.db #0x00	; 0
	.db #0x00	; 0
	.db #0x00	; 0
	.db #0x00	; 0
	.db #0x00	; 0
	.db #0x00	; 0
	.db #0x00	; 0
	.db #0x00	; 0
	.db #0x00	; 0
	.db #0x00	; 0
	.db #0x00	; 0
	.db #0x00	; 0
	.db #0x00	; 0
	.db #0x00	; 0
	.db #0x00	; 0
	.db #0x00	; 0
	.db #0x00	; 0
	.db #0x00	; 0
	.db #0x00	; 0
	.db #0x00	; 0
	.db #0x00	; 0
	.db #0x00	; 0
	.db #0x00	; 0
	.db #0x00	; 0
	.db #0x00	; 0
	.db #0x00	; 0
	.db #0x00	; 0
	.db #0x00	; 0
	.db #0x00	; 0
	.db #0x00	; 0
	.db #0x00	; 0
	.db #0x00	; 0
	.db #0x00	; 0
	.db #0x00	; 0
	.db #0x00	; 0
	.db #0x00	; 0
	.db #0x00	; 0
	.db #0x00	; 0
	.db #0x00	; 0
	.db #0x00	; 0
	.db #0x00	; 0
	.db #0x00	; 0
	.db #0x00	; 0
	.db #0x00	; 0
	.db #0x00	; 0
	.db #0x00	; 0
	.db #0x00	; 0
	.db #0x00	; 0
	.db #0x00	; 0
	.db #0x00	; 0
	.db #0x00	; 0
	.db #0x00	; 0
	.db #0x15	; 21
	.db #0x17	; 23
	.db #0x04	; 4
	.db #0x0a	; 10
	.db #0x00	; 0
	.db #0x00	; 0
	.db #0x00	; 0
	.db #0x00	; 0
	.db #0x00	; 0
	.db #0x00	; 0
	.db #0x00	; 0
	.db #0x00	; 0
	.db #0x00	; 0
	.db #0x00	; 0
	.db #0x00	; 0
	.db #0x00	; 0
	.db #0x00	; 0
	.db #0x00	; 0
	.db #0x00	; 0
	.db #0x00	; 0
	.db #0x00	; 0
	.db #0x00	; 0
	.db #0x00	; 0
	.db #0x00	; 0
	.db #0x00	; 0
	.db #0x00	; 0
	.db #0x00	; 0
	.db #0x00	; 0
	.db #0x00	; 0
	.db #0x00	; 0
	.db #0x00	; 0
	.db #0x00	; 0
	.db #0x00	; 0
	.db #0x00	; 0
	.db #0x00	; 0
	.db #0x00	; 0
	.db #0x00	; 0
	.db #0x00	; 0
	.db #0x00	; 0
	.db #0x00	; 0
	.db #0x00	; 0
	.db #0x00	; 0
	.db #0x00	; 0
	.db #0x00	; 0
	.db #0x00	; 0
	.db #0x00	; 0
	.db #0x00	; 0
	.db #0x00	; 0
	.db #0x00	; 0
	.db #0x00	; 0
	.db #0x00	; 0
	.db #0x00	; 0
	.db #0x00	; 0
	.db #0x00	; 0
	.db #0x00	; 0
	.db #0x00	; 0
	.db #0x00	; 0
	.db #0x00	; 0
	.db #0x00	; 0
	.db #0x00	; 0
	.db #0x00	; 0
	.db #0x00	; 0
	.db #0x00	; 0
	.db #0x00	; 0
	.db #0x16	; 22
	.db #0x18	; 24
	.db #0x05	; 5
	.db #0x0b	; 11
	.db #0x1d	; 29
	.db #0x1f	; 31
	.db #0x1d	; 29
	.db #0x1f	; 31
	.db #0x1d	; 29
	.db #0x1f	; 31
	.db #0x1d	; 29
	.db #0x1f	; 31
	.db #0x1d	; 29
	.db #0x1f	; 31
	.db #0x1d	; 29
	.db #0x1f	; 31
	.db #0x1d	; 29
	.db #0x1f	; 31
	.db #0x1d	; 29
	.db #0x1f	; 31
	.db #0x1d	; 29
	.db #0x1f	; 31
	.db #0x1d	; 29
	.db #0x1f	; 31
	.db #0x1d	; 29
	.db #0x1f	; 31
	.db #0x1d	; 29
	.db #0x1f	; 31
	.db #0x1d	; 29
	.db #0x1f	; 31
	.db #0x1d	; 29
	.db #0x1f	; 31
	.db #0x1d	; 29
	.db #0x1f	; 31
	.db #0x1d	; 29
	.db #0x1f	; 31
	.db #0x1d	; 29
	.db #0x1f	; 31
	.db #0x1d	; 29
	.db #0x1f	; 31
	.db #0x1d	; 29
	.db #0x1f	; 31
	.db #0x1d	; 29
	.db #0x1f	; 31
	.db #0x1d	; 29
	.db #0x1f	; 31
	.db #0x1d	; 29
	.db #0x1f	; 31
	.db #0x1d	; 29
	.db #0x1f	; 31
	.db #0x1d	; 29
	.db #0x1f	; 31
	.db #0x1d	; 29
	.db #0x1f	; 31
	.db #0x1d	; 29
	.db #0x1f	; 31
	.db #0x1d	; 29
	.db #0x1f	; 31
	.db #0x1d	; 29
	.db #0x1f	; 31
	.db #0x1d	; 29
	.db #0x1f	; 31
	.db #0x1d	; 29
	.db #0x1f	; 31
	.db #0x19	; 25
	.db #0x1a	; 26
	.db #0x06	; 6
	.db #0x0c	; 12
	.db #0x1e	; 30
	.db #0x20	; 32
	.db #0x1e	; 30
	.db #0x20	; 32
	.db #0x1e	; 30
	.db #0x20	; 32
	.db #0x1e	; 30
	.db #0x20	; 32
	.db #0x1e	; 30
	.db #0x20	; 32
	.db #0x1e	; 30
	.db #0x20	; 32
	.db #0x1e	; 30
	.db #0x20	; 32
	.db #0x1e	; 30
	.db #0x20	; 32
	.db #0x1e	; 30
	.db #0x20	; 32
	.db #0x1e	; 30
	.db #0x20	; 32
	.db #0x1e	; 30
	.db #0x20	; 32
	.db #0x1e	; 30
	.db #0x20	; 32
	.db #0x1e	; 30
	.db #0x20	; 32
	.db #0x1e	; 30
	.db #0x20	; 32
	.db #0x1e	; 30
	.db #0x20	; 32
	.db #0x1e	; 30
	.db #0x20	; 32
	.db #0x1e	; 30
	.db #0x20	; 32
	.db #0x1e	; 30
	.db #0x20	; 32
	.db #0x1e	; 30
	.db #0x20	; 32
	.db #0x1e	; 30
	.db #0x20	; 32
	.db #0x1e	; 30
	.db #0x20	; 32
	.db #0x1e	; 30
	.db #0x20	; 32
	.db #0x1e	; 30
	.db #0x20	; 32
	.db #0x1e	; 30
	.db #0x20	; 32
	.db #0x1e	; 30
	.db #0x20	; 32
	.db #0x1e	; 30
	.db #0x20	; 32
	.db #0x1e	; 30
	.db #0x20	; 32
	.db #0x1e	; 30
	.db #0x20	; 32
	.db #0x1e	; 30
	.db #0x20	; 32
	.db #0x1e	; 30
	.db #0x20	; 32
	.db #0x1b	; 27
	.db #0x1c	; 28
_Sprites:
	.db #0x0f	; 15
	.db #0x0f	; 15
	.db #0x14	; 20
	.db #0x10	; 16
	.db #0x3f	; 63
	.db #0x2f	; 47
	.db #0x57	; 87	'W'
	.db #0x58	; 88	'X'
	.db #0x5f	; 95
	.db #0x53	; 83	'S'
	.db #0x7c	; 124
	.db #0x57	; 87	'W'
	.db #0x2c	; 44
	.db #0x37	; 55	'7'
	.db #0x74	; 116	't'
	.db #0x7f	; 127
	.db #0xa4	; 164
	.db #0xbf	; 191
	.db #0xe4	; 228
	.db #0xbf	; 191
	.db #0xec	; 236
	.db #0xbf	; 191
	.db #0x64	; 100	'd'
	.db #0x7f	; 127
	.db #0x47	; 71	'G'
	.db #0x7f	; 127
	.db #0x40	; 64
	.db #0x7f	; 127
	.db #0x80	; 128
	.db #0xff	; 255
	.db #0xff	; 255
	.db #0xff	; 255
	.db #0xe0	; 224
	.db #0xe0	; 224
	.db #0xd0	; 208
	.db #0x10	; 16
	.db #0xf8	; 248
	.db #0xe8	; 232
	.db #0xf4	; 244
	.db #0x14	; 20
	.db #0xf6	; 246
	.db #0x92	; 146
	.db #0x76	; 118	'v'
	.db #0xd2	; 210
	.db #0x76	; 118	'v'
	.db #0xce	; 206
	.db #0x4c	; 76	'L'
	.db #0xfc	; 252
	.db #0x44	; 68	'D'
	.db #0xf8	; 248
	.db #0x4e	; 78	'N'
	.db #0xfa	; 250
	.db #0x6a	; 106	'j'
	.db #0xfe	; 254
	.db #0x81	; 129
	.db #0xff	; 255
	.db #0x07	; 7
	.db #0xfd	; 253
	.db #0x1e	; 30
	.db #0xfe	; 254
	.db #0x3c	; 60
	.db #0xe4	; 228
	.db #0xf8	; 248
	.db #0xf8	; 248
	.db #0x07	; 7
	.db #0x07	; 7
	.db #0x0b	; 11
	.db #0x08	; 8
	.db #0x1f	; 31
	.db #0x17	; 23
	.db #0x2f	; 47
	.db #0x28	; 40
	.db #0x6f	; 111	'o'
	.db #0x49	; 73	'I'
	.db #0x6e	; 110	'n'
	.db #0x4b	; 75	'K'
	.db #0x6e	; 110	'n'
	.db #0x73	; 115	's'
	.db #0x32	; 50	'2'
	.db #0x3f	; 63
	.db #0x22	; 34
	.db #0x1f	; 31
	.db #0x72	; 114	'r'
	.db #0x5f	; 95
	.db #0x56	; 86	'V'
	.db #0x7f	; 127
	.db #0x81	; 129
	.db #0xff	; 255
	.db #0xe0	; 224
	.db #0xbf	; 191
	.db #0x78	; 120	'x'
	.db #0x7f	; 127
	.db #0x3c	; 60
	.db #0x27	; 39
	.db #0x1f	; 31
	.db #0x1f	; 31
	.db #0xf0	; 240
	.db #0xf0	; 240
	.db #0x28	; 40
	.db #0x08	; 8
	.db #0xfc	; 252
	.db #0xf4	; 244
	.db #0xea	; 234
	.db #0x1a	; 26
	.db #0xfa	; 250
	.db #0xca	; 202
	.db #0x3e	; 62
	.db #0xea	; 234
	.db #0x34	; 52	'4'
	.db #0xec	; 236
	.db #0x2e	; 46
	.db #0xfe	; 254
	.db #0x25	; 37
	.db #0xfd	; 253
	.db #0x27	; 39
	.db #0xfd	; 253
	.db #0x37	; 55	'7'
	.db #0xfd	; 253
	.db #0x26	; 38
	.db #0xfe	; 254
	.db #0xe2	; 226
	.db #0xfe	; 254
	.db #0x02	; 2
	.db #0xfe	; 254
	.db #0x01	; 1
	.db #0xff	; 255
	.db #0xff	; 255
	.db #0xff	; 255
	.db #0x07	; 7
	.db #0x07	; 7
	.db #0x18	; 24
	.db #0x18	; 24
	.db #0x23	; 35
	.db #0x30	; 48	'0'
	.db #0x5f	; 95
	.db #0x50	; 80	'P'
	.db #0x5f	; 95
	.db #0x43	; 67	'C'
	.db #0x7e	; 126
	.db #0x4e	; 78	'N'
	.db #0x22	; 34
	.db #0x32	; 50	'2'
	.db #0x72	; 114	'r'
	.db #0x62	; 98	'b'
	.db #0xf8	; 248
	.db #0x90	; 144
	.db #0x9f	; 159
	.db #0x9f	; 159
	.db #0x74	; 116	't'
	.db #0x6f	; 111	'o'
	.db #0x7e	; 126
	.db #0x7b	; 123
	.db #0x5f	; 95
	.db #0x6b	; 107	'k'
	.db #0x7f	; 127
	.db #0x7c	; 124
	.db #0x67	; 103	'g'
	.db #0x63	; 99	'c'
	.db #0x3f	; 63
	.db #0x3f	; 63
	.db #0xe0	; 224
	.db #0xe0	; 224
	.db #0x18	; 24
	.db #0x18	; 24
	.db #0xc4	; 196
	.db #0x0c	; 12
	.db #0xfa	; 250
	.db #0x0a	; 10
	.db #0xfa	; 250
	.db #0xc2	; 194
	.db #0x7e	; 126
	.db #0x72	; 114	'r'
	.db #0x44	; 68	'D'
	.db #0x4c	; 76	'L'
	.db #0x4e	; 78	'N'
	.db #0x46	; 70	'F'
	.db #0x37	; 55	'7'
	.db #0x19	; 25
	.db #0xff	; 255
	.db #0xf1	; 241
	.db #0x43	; 67	'C'
	.db #0xe1	; 225
	.db #0x42	; 66	'B'
	.db #0xe2	; 226
	.db #0xde	; 222
	.db #0xe2	; 226
	.db #0xfe	; 254
	.db #0x3e	; 62
	.db #0xee	; 238
	.db #0xfe	; 254
	.db #0xf8	; 248
	.db #0xf8	; 248
	.db #0x0f	; 15
	.db #0x0f	; 15
	.db #0x30	; 48	'0'
	.db #0x30	; 48	'0'
	.db #0x47	; 71	'G'
	.db #0x60	; 96
	.db #0xbf	; 191
	.db #0xa0	; 160
	.db #0xbf	; 191
	.db #0x87	; 135
	.db #0xfc	; 252
	.db #0x9c	; 156
	.db #0x44	; 68	'D'
	.db #0x64	; 100	'd'
	.db #0xe4	; 228
	.db #0xc4	; 196
	.db #0xd8	; 216
	.db #0xb0	; 176
	.db #0xff	; 255
	.db #0x9f	; 159
	.db #0xc4	; 196
	.db #0x87	; 135
	.db #0x44	; 68	'D'
	.db #0x47	; 71	'G'
	.db #0x7f	; 127
	.db #0x47	; 71	'G'
	.db #0x7f	; 127
	.db #0x78	; 120	'x'
	.db #0x77	; 119	'w'
	.db #0x7f	; 127
	.db #0x1f	; 31
	.db #0x1f	; 31
	.db #0xc0	; 192
	.db #0xc0	; 192
	.db #0x30	; 48	'0'
	.db #0x30	; 48	'0'
	.db #0x88	; 136
	.db #0x18	; 24
	.db #0xf4	; 244
	.db #0x14	; 20
	.db #0xf4	; 244
	.db #0x84	; 132
	.db #0xfc	; 252
	.db #0xe4	; 228
	.db #0x88	; 136
	.db #0x98	; 152
	.db #0x9c	; 156
	.db #0x8c	; 140
	.db #0x3e	; 62
	.db #0x1a	; 26
	.db #0xf2	; 242
	.db #0xf2	; 242
	.db #0x4e	; 78	'N'
	.db #0xf6	; 246
	.db #0x7e	; 126
	.db #0xde	; 222
	.db #0xfa	; 250
	.db #0xd6	; 214
	.db #0xfe	; 254
	.db #0x3e	; 62
	.db #0xe8	; 232
	.db #0x88	; 136
	.db #0xf8	; 248
	.db #0xf8	; 248
	.db #0x7f	; 127
	.db #0x7f	; 127
	.db #0x81	; 129
	.db #0x81	; 129
	.db #0x9c	; 156
	.db #0x80	; 128
	.db #0xbf	; 191
	.db #0x81	; 129
	.db #0xff	; 255
	.db #0xbc	; 188
	.db #0x4b	; 75	'K'
	.db #0x4b	; 75	'K'
	.db #0x49	; 73	'I'
	.db #0x49	; 73	'I'
	.db #0x81	; 129
	.db #0x80	; 128
	.db #0x63	; 99	'c'
	.db #0x41	; 65	'A'
	.db #0x3e	; 62
	.db #0x3f	; 63
	.db #0x77	; 119	'w'
	.db #0x4f	; 79	'O'
	.db #0x74	; 116	't'
	.db #0x4c	; 76	'L'
	.db #0x35	; 53	'5'
	.db #0x2c	; 44
	.db #0x2f	; 47
	.db #0x3f	; 63
	.db #0x18	; 24
	.db #0x18	; 24
	.db #0x3f	; 63
	.db #0x3f	; 63
	.db #0xc0	; 192
	.db #0xc0	; 192
	.db #0xfe	; 254
	.db #0x3e	; 62
	.db #0xf1	; 241
	.db #0x9f	; 159
	.db #0xf1	; 241
	.db #0x5f	; 95
	.db #0xf9	; 249
	.db #0xef	; 239
	.db #0x29	; 41
	.db #0x3f	; 63
	.db #0xaa	; 170
	.db #0x3e	; 62
	.db #0xd4	; 212
	.db #0xf4	; 244
	.db #0xf0	; 240
	.db #0xb0	; 176
	.db #0x30	; 48	'0'
	.db #0xd0	; 208
	.db #0xc8	; 200
	.db #0xf8	; 248
	.db #0xc8	; 200
	.db #0xb8	; 184
	.db #0xe8	; 232
	.db #0xb8	; 184
	.db #0xa8	; 168
	.db #0xb8	; 184
	.db #0x28	; 40
	.db #0x38	; 56	'8'
	.db #0xf8	; 248
	.db #0xf8	; 248
	.db #0x7f	; 127
	.db #0x7f	; 127
	.db #0x81	; 129
	.db #0x81	; 129
	.db #0x9c	; 156
	.db #0x80	; 128
	.db #0xbf	; 191
	.db #0x81	; 129
	.db #0xff	; 255
	.db #0xbc	; 188
	.db #0x4b	; 75	'K'
	.db #0x4b	; 75	'K'
	.db #0x49	; 73	'I'
	.db #0x49	; 73	'I'
	.db #0x81	; 129
	.db #0x80	; 128
	.db #0x63	; 99	'c'
	.db #0x41	; 65	'A'
	.db #0x3e	; 62
	.db #0x3f	; 63
	.db #0x7f	; 127
	.db #0x47	; 71	'G'
	.db #0x61	; 97	'a'
	.db #0x61	; 97	'a'
	.db #0x2f	; 47
	.db #0x21	; 33
	.db #0x3f	; 63
	.db #0x3f	; 63
	.db #0x41	; 65	'A'
	.db #0x7f	; 127
	.db #0x7f	; 127
	.db #0x7f	; 127
	.db #0xc0	; 192
	.db #0xc0	; 192
	.db #0xfc	; 252
	.db #0x3c	; 60
	.db #0xf2	; 242
	.db #0x9e	; 158
	.db #0xf9	; 249
	.db #0x4f	; 79	'O'
	.db #0xf9	; 249
	.db #0xef	; 239
	.db #0x29	; 41
	.db #0x3f	; 63
	.db #0xaa	; 170
	.db #0x3e	; 62
	.db #0xd4	; 212
	.db #0xf4	; 244
	.db #0xf8	; 248
	.db #0x98	; 152
	.db #0x38	; 56	'8'
	.db #0xc8	; 200
	.db #0xd0	; 208
	.db #0xf0	; 240
	.db #0xf8	; 248
	.db #0xa8	; 168
	.db #0xe8	; 232
	.db #0xa8	; 168
	.db #0xe8	; 232
	.db #0xe8	; 232
	.db #0x68	; 104	'h'
	.db #0x28	; 40
	.db #0xf0	; 240
	.db #0xf0	; 240
	.db #0x03	; 3
	.db #0x03	; 3
	.db #0x7f	; 127
	.db #0x7c	; 124
	.db #0x8f	; 143
	.db #0xf9	; 249
	.db #0x8f	; 143
	.db #0xfa	; 250
	.db #0x9f	; 159
	.db #0xf7	; 247
	.db #0x94	; 148
	.db #0xfc	; 252
	.db #0x55	; 85	'U'
	.db #0x7c	; 124
	.db #0x2b	; 43
	.db #0x2f	; 47
	.db #0x0f	; 15
	.db #0x0d	; 13
	.db #0x0c	; 12
	.db #0x0b	; 11
	.db #0x13	; 19
	.db #0x1f	; 31
	.db #0x13	; 19
	.db #0x1d	; 29
	.db #0x17	; 23
	.db #0x1d	; 29
	.db #0x15	; 21
	.db #0x1d	; 29
	.db #0x14	; 20
	.db #0x1c	; 28
	.db #0x1f	; 31
	.db #0x1f	; 31
	.db #0xfe	; 254
	.db #0xfe	; 254
	.db #0x81	; 129
	.db #0x81	; 129
	.db #0x39	; 57	'9'
	.db #0x01	; 1
	.db #0xfd	; 253
	.db #0x81	; 129
	.db #0xff	; 255
	.db #0x3d	; 61
	.db #0xd2	; 210
	.db #0xd2	; 210
	.db #0x92	; 146
	.db #0x92	; 146
	.db #0x81	; 129
	.db #0x01	; 1
	.db #0xc6	; 198
	.db #0x82	; 130
	.db #0x7c	; 124
	.db #0xfc	; 252
	.db #0xee	; 238
	.db #0xf2	; 242
	.db #0x2e	; 46
	.db #0x32	; 50	'2'
	.db #0xac	; 172
	.db #0x34	; 52	'4'
	.db #0xf4	; 244
	.db #0xfc	; 252
	.db #0x18	; 24
	.db #0x18	; 24
	.db #0xfc	; 252
	.db #0xfc	; 252
	.db #0x03	; 3
	.db #0x03	; 3
	.db #0x3f	; 63
	.db #0x3c	; 60
	.db #0x4f	; 79	'O'
	.db #0x79	; 121	'y'
	.db #0x9f	; 159
	.db #0xf2	; 242
	.db #0x9f	; 159
	.db #0xf7	; 247
	.db #0x94	; 148
	.db #0xfc	; 252
	.db #0x55	; 85	'U'
	.db #0x7c	; 124
	.db #0x2b	; 43
	.db #0x2f	; 47
	.db #0x1f	; 31
	.db #0x19	; 25
	.db #0x1c	; 28
	.db #0x13	; 19
	.db #0x0b	; 11
	.db #0x0f	; 15
	.db #0x1f	; 31
	.db #0x15	; 21
	.db #0x17	; 23
	.db #0x15	; 21
	.db #0x17	; 23
	.db #0x17	; 23
	.db #0x16	; 22
	.db #0x14	; 20
	.db #0x0f	; 15
	.db #0x0f	; 15
	.db #0xfe	; 254
	.db #0xfe	; 254
	.db #0x81	; 129
	.db #0x81	; 129
	.db #0x39	; 57	'9'
	.db #0x01	; 1
	.db #0xfd	; 253
	.db #0x81	; 129
	.db #0xff	; 255
	.db #0x3d	; 61
	.db #0xd2	; 210
	.db #0xd2	; 210
	.db #0x92	; 146
	.db #0x92	; 146
	.db #0x81	; 129
	.db #0x01	; 1
	.db #0xc6	; 198
	.db #0x82	; 130
	.db #0x7c	; 124
	.db #0xfc	; 252
	.db #0xfe	; 254
	.db #0xe2	; 226
	.db #0x86	; 134
	.db #0x86	; 134
	.db #0xf4	; 244
	.db #0x84	; 132
	.db #0xfc	; 252
	.db #0xfc	; 252
	.db #0x82	; 130
	.db #0xfe	; 254
	.db #0xfe	; 254
	.db #0xfe	; 254
	.db #0x00	; 0
	.db #0x00	; 0
	.db #0x00	; 0
	.db #0x00	; 0
	.db #0x00	; 0
	.db #0x00	; 0
	.db #0x00	; 0
	.db #0x00	; 0
	.db #0x00	; 0
	.db #0x00	; 0
	.db #0x00	; 0
	.db #0x00	; 0
	.db #0x7f	; 127
	.db #0x7f	; 127
	.db #0xf8	; 248
	.db #0x87	; 135
	.db #0x77	; 119	'w'
	.db #0x4f	; 79	'O'
	.db #0x54	; 84	'T'
	.db #0x7c	; 124
	.db #0x28	; 40
	.db #0x28	; 40
	.db #0x00	; 0
	.db #0x00	; 0
	.db #0x00	; 0
	.db #0x00	; 0
	.db #0x00	; 0
	.db #0x00	; 0
	.db #0x00	; 0
	.db #0x00	; 0
	.db #0x00	; 0
	.db #0x00	; 0
	.db #0x00	; 0
	.db #0x00	; 0
	.db #0x00	; 0
	.db #0x00	; 0
	.db #0x00	; 0
	.db #0x00	; 0
	.db #0x00	; 0
	.db #0x00	; 0
	.db #0x38	; 56	'8'
	.db #0x38	; 56	'8'
	.db #0x7c	; 124
	.db #0x44	; 68	'D'
	.db #0xd2	; 210
	.db #0x92	; 146
	.db #0xaa	; 170
	.db #0x2a	; 42
	.db #0xaa	; 170
	.db #0xaa	; 170
	.db #0x92	; 146
	.db #0x96	; 150
	.db #0x44	; 68	'D'
	.db #0x7c	; 124
	.db #0x38	; 56	'8'
	.db #0x38	; 56	'8'
	.db #0x00	; 0
	.db #0x00	; 0
	.db #0x00	; 0
	.db #0x00	; 0
	.db #0x00	; 0
	.db #0x00	; 0
	.db #0x00	; 0
	.db #0x00	; 0
	.db #0xff	; 255
	.db #0xff	; 255
	.db #0x7f	; 127
	.db #0x80	; 128
	.db #0x00	; 0
	.db #0x80	; 128
	.db #0xfd	; 253
	.db #0xfc	; 252
	.db #0xa1	; 161
	.db #0xfc	; 252
	.db #0xe2	; 226
	.db #0xf8	; 248
	.db #0xc2	; 194
	.db #0xf8	; 248
	.db #0xc4	; 196
	.db #0xf0	; 240
	.db #0xc4	; 196
	.db #0xf0	; 240
	.db #0xe6	; 230
	.db #0xf4	; 244
	.db #0xa5	; 165
	.db #0xf6	; 246
	.db #0xa2	; 162
	.db #0xfb	; 251
	.db #0xa1	; 161
	.db #0xfd	; 253
	.db #0xff	; 255
	.db #0xff	; 255
	.db #0xff	; 255
	.db #0x00	; 0
	.db #0xff	; 255
	.db #0xff	; 255
	.db #0xff	; 255
	.db #0xff	; 255
	.db #0xff	; 255
	.db #0x00	; 0
	.db #0x00	; 0
	.db #0x00	; 0
	.db #0x7f	; 127
	.db #0x7f	; 127
	.db #0x82	; 130
	.db #0x3f	; 63
	.db #0xc3	; 195
	.db #0x1f	; 31
	.db #0x43	; 67	'C'
	.db #0x1f	; 31
	.db #0x23	; 35
	.db #0x0f	; 15
	.db #0x23	; 35
	.db #0x0f	; 15
	.db #0x63	; 99	'c'
	.db #0x2f	; 47
	.db #0xa3	; 163
	.db #0x6f	; 111	'o'
	.db #0x42	; 66	'B'
	.db #0xdf	; 223
	.db #0x82	; 130
	.db #0xbf	; 191
	.db #0xff	; 255
	.db #0xff	; 255
	.db #0xff	; 255
	.db #0x00	; 0
	.db #0xff	; 255
	.db #0xff	; 255
	.db #0xff	; 255
	.db #0xff	; 255
	.db #0x7e	; 126
	.db #0x80	; 128
	.db #0x01	; 1
	.db #0x80	; 128
	.db #0xfd	; 253
	.db #0xfc	; 252
	.db #0xaa	; 170
	.db #0xf0	; 240
	.db #0xea	; 234
	.db #0xf0	; 240
	.db #0xd4	; 212
	.db #0xe0	; 224
	.db #0xd4	; 212
	.db #0xe0	; 224
	.db #0xd4	; 212
	.db #0xe0	; 224
	.db #0xd6	; 214
	.db #0xe4	; 228
	.db #0xf5	; 245
	.db #0xe6	; 230
	.db #0xaa	; 170
	.db #0xf3	; 243
	.db #0xa5	; 165
	.db #0xf9	; 249
	.db #0xff	; 255
	.db #0xff	; 255
	.db #0xff	; 255
	.db #0x00	; 0
	.db #0xff	; 255
	.db #0xff	; 255
	.db #0xff	; 255
	.db #0xff	; 255
	.db #0xff	; 255
	.db #0x00	; 0
	.db #0x00	; 0
	.db #0x00	; 0
	.db #0x7f	; 127
	.db #0x7f	; 127
	.db #0xa2	; 162
	.db #0x1f	; 31
	.db #0x53	; 83	'S'
	.db #0x0f	; 15
	.db #0x53	; 83	'S'
	.db #0x0f	; 15
	.db #0x2b	; 43
	.db #0x07	; 7
	.db #0x2b	; 43
	.db #0x07	; 7
	.db #0x6b	; 107	'k'
	.db #0x27	; 39
	.db #0xab	; 171
	.db #0x67	; 103	'g'
	.db #0x52	; 82	'R'
	.db #0xcf	; 207
	.db #0xa2	; 162
	.db #0x9f	; 159
	.db #0xff	; 255
	.db #0xff	; 255
	.db #0xff	; 255
	.db #0x00	; 0
	.db #0xff	; 255
	.db #0xff	; 255
	.db #0xfc	; 252
	.db #0xfc	; 252
	.db #0x7d	; 125
	.db #0x80	; 128
	.db #0x00	; 0
	.db #0x80	; 128
	.db #0xfe	; 254
	.db #0xfe	; 254
	.db #0xad	; 173
	.db #0xf0	; 240
	.db #0xed	; 237
	.db #0xf0	; 240
	.db #0xda	; 218
	.db #0xe0	; 224
	.db #0xf4	; 244
	.db #0xc0	; 192
	.db #0xf4	; 244
	.db #0xc0	; 192
	.db #0xf6	; 246
	.db #0xc4	; 196
	.db #0xf5	; 245
	.db #0xc6	; 198
	.db #0xba	; 186
	.db #0xe3	; 227
	.db #0xad	; 173
	.db #0xf1	; 241
	.db #0xff	; 255
	.db #0xff	; 255
	.db #0xff	; 255
	.db #0x00	; 0
	.db #0xff	; 255
	.db #0xff	; 255
	.db #0xff	; 255
	.db #0xff	; 255
	.db #0x7f	; 127
	.db #0x00	; 0
	.db #0x00	; 0
	.db #0x00	; 0
	.db #0xbf	; 191
	.db #0x3f	; 63
	.db #0x5a	; 90	'Z'
	.db #0x07	; 7
	.db #0x5b	; 91
	.db #0x07	; 7
	.db #0x2f	; 47
	.db #0x03	; 3
	.db #0x2f	; 47
	.db #0x03	; 3
	.db #0x2f	; 47
	.db #0x03	; 3
	.db #0x6f	; 111	'o'
	.db #0x23	; 35
	.db #0xaf	; 175
	.db #0x63	; 99	'c'
	.db #0x5a	; 90	'Z'
	.db #0xc7	; 199
	.db #0xb2	; 178
	.db #0x8f	; 143
	.db #0xff	; 255
	.db #0xff	; 255
	.db #0xff	; 255
	.db #0x00	; 0
	.db #0xff	; 255
	.db #0xff	; 255
	.db #0xff	; 255
	.db #0xff	; 255
	.db #0x7e	; 126
	.db #0x80	; 128
	.db #0x01	; 1
	.db #0x80	; 128
	.db #0xfd	; 253
	.db #0xfc	; 252
	.db #0xaa	; 170
	.db #0xf0	; 240
	.db #0xfa	; 250
	.db #0xe0	; 224
	.db #0xd4	; 212
	.db #0xe0	; 224
	.db #0xd4	; 212
	.db #0xe0	; 224
	.db #0xd4	; 212
	.db #0xe0	; 224
	.db #0xd6	; 214
	.db #0xe4	; 228
	.db #0xf5	; 245
	.db #0xe6	; 230
	.db #0xaa	; 170
	.db #0xf3	; 243
	.db #0xa5	; 165
	.db #0xf9	; 249
	.db #0xff	; 255
	.db #0xff	; 255
	.db #0xff	; 255
	.db #0x00	; 0
	.db #0xff	; 255
	.db #0xff	; 255
	.db #0xff	; 255
	.db #0xff	; 255
	.db #0xff	; 255
	.db #0x00	; 0
	.db #0x00	; 0
	.db #0x00	; 0
	.db #0x7f	; 127
	.db #0x7f	; 127
	.db #0xaa	; 170
	.db #0x07	; 7
	.db #0x4b	; 75	'K'
	.db #0x07	; 7
	.db #0x53	; 83	'S'
	.db #0x0f	; 15
	.db #0x2b	; 43
	.db #0x07	; 7
	.db #0x2b	; 43
	.db #0x07	; 7
	.db #0x6b	; 107	'k'
	.db #0x27	; 39
	.db #0xab	; 171
	.db #0x67	; 103	'g'
	.db #0x52	; 82	'R'
	.db #0xcf	; 207
	.db #0xa2	; 162
	.db #0x9f	; 159
	.db #0xff	; 255
	.db #0xff	; 255
	.db #0xff	; 255
	.db #0x00	; 0
	.db #0xff	; 255
	.db #0xff	; 255
	.db #0xff	; 255
	.db #0xff	; 255
	.db #0x9f	; 159
	.db #0xa0	; 160
	.db #0xa0	; 160
	.db #0xbf	; 191
	.db #0x80	; 128
	.db #0x80	; 128
	.db #0xbd	; 189
	.db #0xbd	; 189
	.db #0x9c	; 156
	.db #0xbc	; 188
	.db #0x9f	; 159
	.db #0xbf	; 191
	.db #0x9f	; 159
	.db #0xbf	; 191
	.db #0x9f	; 159
	.db #0xbf	; 191
	.db #0x9f	; 159
	.db #0xbf	; 191
	.db #0x80	; 128
	.db #0x80	; 128
	.db #0xa0	; 160
	.db #0xbf	; 191
	.db #0xa0	; 160
	.db #0xbf	; 191
	.db #0xbf	; 191
	.db #0xbf	; 191
	.db #0x80	; 128
	.db #0x80	; 128
	.db #0xff	; 255
	.db #0xff	; 255
	.db #0xff	; 255
	.db #0xff	; 255
	.db #0xf9	; 249
	.db #0x05	; 5
	.db #0x05	; 5
	.db #0xfd	; 253
	.db #0x01	; 1
	.db #0x01	; 1
	.db #0xbd	; 189
	.db #0xbd	; 189
	.db #0x39	; 57	'9'
	.db #0x3d	; 61
	.db #0xf9	; 249
	.db #0xfd	; 253
	.db #0xf9	; 249
	.db #0xfd	; 253
	.db #0xf9	; 249
	.db #0xfd	; 253
	.db #0xf9	; 249
	.db #0xfd	; 253
	.db #0x01	; 1
	.db #0x01	; 1
	.db #0x05	; 5
	.db #0xfd	; 253
	.db #0x05	; 5
	.db #0xfd	; 253
	.db #0xfd	; 253
	.db #0xfd	; 253
	.db #0x01	; 1
	.db #0x01	; 1
	.db #0xff	; 255
	.db #0xff	; 255
	.db #0x00	; 0
	.db #0x00	; 0
	.db #0x00	; 0
	.db #0x00	; 0
	.db #0x00	; 0
	.db #0x00	; 0
	.db #0x00	; 0
	.db #0x00	; 0
	.db #0x00	; 0
	.db #0x00	; 0
	.db #0x00	; 0
	.db #0x00	; 0
	.db #0x01	; 1
	.db #0x01	; 1
	.db #0x02	; 2
	.db #0x02	; 2
	.db #0x04	; 4
	.db #0x04	; 4
	.db #0x39	; 57	'9'
	.db #0x38	; 56	'8'
	.db #0x3f	; 63
	.db #0x29	; 41
	.db #0x2e	; 46
	.db #0x36	; 54	'6'
	.db #0x16	; 22
	.db #0x1a	; 26
	.db #0x0e	; 14
	.db #0x0e	; 14
	.db #0x00	; 0
	.db #0x00	; 0
	.db #0x00	; 0
	.db #0x00	; 0
	.db #0x00	; 0
	.db #0x00	; 0
	.db #0x00	; 0
	.db #0x00	; 0
	.db #0x00	; 0
	.db #0x00	; 0
	.db #0x38	; 56	'8'
	.db #0x38	; 56	'8'
	.db #0x48	; 72	'H'
	.db #0x48	; 72	'H'
	.db #0x98	; 152
	.db #0x88	; 136
	.db #0x30	; 48	'0'
	.db #0x10	; 16
	.db #0x60	; 96
	.db #0x20	; 32
	.db #0xc0	; 192
	.db #0x40	; 64
	.db #0x80	; 128
	.db #0x80	; 128
	.db #0x00	; 0
	.db #0x00	; 0
	.db #0x00	; 0
	.db #0x00	; 0
	.db #0x00	; 0
	.db #0x00	; 0
	.db #0x00	; 0
	.db #0x00	; 0
	.db #0x00	; 0
	.db #0x00	; 0
	.db #0x00	; 0
	.db #0x00	; 0
	.db #0x00	; 0
	.db #0x00	; 0
	.db #0x00	; 0
	.db #0x00	; 0
	.db #0x00	; 0
	.db #0x00	; 0
	.db #0x07	; 7
	.db #0x07	; 7
	.db #0x04	; 4
	.db #0x04	; 4
	.db #0x06	; 6
	.db #0x04	; 4
	.db #0x03	; 3
	.db #0x02	; 2
	.db #0x01	; 1
	.db #0x01	; 1
	.db #0x03	; 3
	.db #0x02	; 2
	.db #0x03	; 3
	.db #0x02	; 2
	.db #0x07	; 7
	.db #0x05	; 5
	.db #0x07	; 7
	.db #0x05	; 5
	.db #0x00	; 0
	.db #0x00	; 0
	.db #0x00	; 0
	.db #0x00	; 0
	.db #0x00	; 0
	.db #0x00	; 0
	.db #0x00	; 0
	.db #0x00	; 0
	.db #0x00	; 0
	.db #0x00	; 0
	.db #0x00	; 0
	.db #0x00	; 0
	.db #0x00	; 0
	.db #0x00	; 0
	.db #0x0c	; 12
	.db #0x0c	; 12
	.db #0xbc	; 188
	.db #0xb0	; 176
	.db #0x7c	; 124
	.db #0x4c	; 76	'L'
	.db #0x30	; 48	'0'
	.db #0x30	; 48	'0'
	.db #0x90	; 144
	.db #0x10	; 16
	.db #0xc8	; 200
	.db #0x88	; 136
	.db #0x67	; 103	'g'
	.db #0x47	; 71	'G'
	.db #0x3f	; 63
	.db #0x25	; 37
	.db #0x1d	; 29
	.db #0x1b	; 27
	.db #0x1a	; 26
	.db #0x16	; 22
	.db #0x1c	; 28
	.db #0x1c	; 28
	.db #0x00	; 0
	.db #0x00	; 0
	.db #0x00	; 0
	.db #0x00	; 0
	.db #0x00	; 0
	.db #0x00	; 0
	.db #0x01	; 1
	.db #0x01	; 1
	.db #0x03	; 3
	.db #0x02	; 2
	.db #0x03	; 3
	.db #0x02	; 2
	.db #0x07	; 7
	.db #0x05	; 5
	.db #0x07	; 7
	.db #0x05	; 5
	.db #0x0e	; 14
	.db #0x0a	; 10
	.db #0x0e	; 14
	.db #0x0a	; 10
	.db #0x0f	; 15
	.db #0x0f	; 15
	.db #0x08	; 8
	.db #0x08	; 8
	.db #0x0f	; 15
	.db #0x08	; 8
	.db #0x07	; 7
	.db #0x07	; 7
	.db #0x00	; 0
	.db #0x00	; 0
	.db #0x00	; 0
	.db #0x00	; 0
	.db #0x00	; 0
	.db #0x00	; 0
	.db #0x00	; 0
	.db #0x00	; 0
	.db #0x00	; 0
	.db #0x00	; 0
	.db #0x00	; 0
	.db #0x00	; 0
	.db #0x80	; 128
	.db #0x80	; 128
	.db #0x80	; 128
	.db #0x80	; 128
	.db #0x00	; 0
	.db #0x00	; 0
	.db #0x00	; 0
	.db #0x00	; 0
	.db #0x00	; 0
	.db #0x00	; 0
	.db #0x06	; 6
	.db #0x06	; 6
	.db #0xfd	; 253
	.db #0xfd	; 253
	.db #0x04	; 4
	.db #0x05	; 5
	.db #0xfc	; 252
	.db #0x05	; 5
	.db #0xfd	; 253
	.db #0xfd	; 253
	.db #0x06	; 6
	.db #0x06	; 6
	.db #0x00	; 0
	.db #0x00	; 0
	.db #0x00	; 0
	.db #0x00	; 0
	.db #0x00	; 0
	.db #0x00	; 0
	.db #0x00	; 0
	.db #0x00	; 0
	.db #0x00	; 0
	.db #0x00	; 0
	.db #0x00	; 0
	.db #0x00	; 0
	.db #0x00	; 0
	.db #0x00	; 0
	.db #0x00	; 0
	.db #0x00	; 0
	.db #0x00	; 0
	.db #0x00	; 0
	.db #0x00	; 0
	.db #0x00	; 0
	.db #0x00	; 0
	.db #0x00	; 0
	.db #0x0f	; 15
	.db #0x0f	; 15
	.db #0x08	; 8
	.db #0x08	; 8
	.db #0x0f	; 15
	.db #0x08	; 8
	.db #0x07	; 7
	.db #0x07	; 7
	.db #0x00	; 0
	.db #0x00	; 0
	.db #0x00	; 0
	.db #0x00	; 0
	.db #0x00	; 0
	.db #0x00	; 0
	.db #0x00	; 0
	.db #0x00	; 0
	.db #0x00	; 0
	.db #0x00	; 0
	.db #0x00	; 0
	.db #0x00	; 0
	.db #0x00	; 0
	.db #0x00	; 0
	.db #0x00	; 0
	.db #0x00	; 0
	.db #0x00	; 0
	.db #0x00	; 0
	.db #0x00	; 0
	.db #0x00	; 0
	.db #0x00	; 0
	.db #0x00	; 0
	.db #0x06	; 6
	.db #0x06	; 6
	.db #0xfd	; 253
	.db #0xfd	; 253
	.db #0x04	; 4
	.db #0x05	; 5
	.db #0xfc	; 252
	.db #0x05	; 5
	.db #0xfd	; 253
	.db #0xfd	; 253
	.db #0x06	; 6
	.db #0x06	; 6
	.db #0x00	; 0
	.db #0x00	; 0
	.db #0x00	; 0
	.db #0x00	; 0
	.db #0x00	; 0
	.db #0x00	; 0
	.db #0x00	; 0
	.db #0x00	; 0
	.db #0x00	; 0
	.db #0x00	; 0
	.db #0x00	; 0
	.db #0x00	; 0
	.db #0x00	; 0
	.db #0x00	; 0
	.db #0x00	; 0
	.db #0x00	; 0
	.db #0x00	; 0
	.db #0x00	; 0
	.db #0x00	; 0
	.db #0x00	; 0
	.db #0x00	; 0
	.db #0x00	; 0
	.db #0x18	; 24
	.db #0x18	; 24
	.db #0x1e	; 30
	.db #0x06	; 6
	.db #0x1f	; 31
	.db #0x19	; 25
	.db #0x06	; 6
	.db #0x06	; 6
	.db #0x04	; 4
	.db #0x04	; 4
	.db #0x09	; 9
	.db #0x08	; 8
	.db #0x73	; 115	's'
	.db #0x71	; 113	'q'
	.db #0x7e	; 126
	.db #0x52	; 82	'R'
	.db #0x00	; 0
	.db #0x00	; 0
	.db #0x00	; 0
	.db #0x00	; 0
	.db #0x00	; 0
	.db #0x00	; 0
	.db #0x00	; 0
	.db #0x00	; 0
	.db #0x00	; 0
	.db #0x00	; 0
	.db #0x00	; 0
	.db #0x00	; 0
	.db #0x00	; 0
	.db #0x00	; 0
	.db #0x38	; 56	'8'
	.db #0x38	; 56	'8'
	.db #0x48	; 72	'H'
	.db #0x48	; 72	'H'
	.db #0x98	; 152
	.db #0x88	; 136
	.db #0x30	; 48	'0'
	.db #0x10	; 16
	.db #0x60	; 96
	.db #0x20	; 32
	.db #0xc0	; 192
	.db #0x40	; 64
	.db #0xe0	; 224
	.db #0xa0	; 160
	.db #0xe0	; 224
	.db #0xa0	; 160
	.db #0x70	; 112	'p'
	.db #0x50	; 80	'P'
	.db #0x00	; 0
	.db #0x00	; 0
	.db #0x00	; 0
	.db #0x00	; 0
	.db #0x00	; 0
	.db #0x00	; 0
	.db #0x00	; 0
	.db #0x00	; 0
	.db #0x00	; 0
	.db #0x00	; 0
	.db #0x00	; 0
	.db #0x00	; 0
	.db #0x00	; 0
	.db #0x00	; 0
	.db #0xf0	; 240
	.db #0xf0	; 240
	.db #0xfc	; 252
	.db #0x0c	; 12
	.db #0xfe	; 254
	.db #0xf2	; 242
	.db #0x0f	; 15
	.db #0x0d	; 13
	.db #0x00	; 0
	.db #0x00	; 0
	.db #0x00	; 0
	.db #0x00	; 0
	.db #0x00	; 0
	.db #0x00	; 0
	.db #0x00	; 0
	.db #0x00	; 0
	.db #0x00	; 0
	.db #0x00	; 0
	.db #0x00	; 0
	.db #0x00	; 0
	.db #0x00	; 0
	.db #0x00	; 0
	.db #0x00	; 0
	.db #0x00	; 0
	.db #0x00	; 0
	.db #0x00	; 0
	.db #0x00	; 0
	.db #0x00	; 0
	.db #0x00	; 0
	.db #0x00	; 0
	.db #0x1f	; 31
	.db #0x1f	; 31
	.db #0x37	; 55	'7'
	.db #0x24	; 36
	.db #0x37	; 55	'7'
	.db #0x27	; 39
	.db #0x34	; 52	'4'
	.db #0x24	; 36
	.db #0x34	; 52	'4'
	.db #0x24	; 36
	.db #0x34	; 52	'4'
	.db #0x24	; 36
	.db #0x34	; 52	'4'
	.db #0x24	; 36
	.db #0x34	; 52	'4'
	.db #0x24	; 36
	.db #0x34	; 52	'4'
	.db #0x24	; 36
	.db #0x7e	; 126
	.db #0x7e	; 126
	.db #0x00	; 0
	.db #0x00	; 0
	.db #0x00	; 0
	.db #0x00	; 0
	.db #0x00	; 0
	.db #0x00	; 0
	.db #0x00	; 0
	.db #0x00	; 0
	.db #0x00	; 0
	.db #0x00	; 0
	.db #0x00	; 0
	.db #0x00	; 0
	.db #0x00	; 0
	.db #0x00	; 0
	.db #0x00	; 0
	.db #0x00	; 0
	.db #0x00	; 0
	.db #0x00	; 0
	.db #0x00	; 0
	.db #0x00	; 0
	.db #0x00	; 0
	.db #0x00	; 0
	.db #0x00	; 0
	.db #0x00	; 0
	.db #0x00	; 0
	.db #0x00	; 0
	.db #0x00	; 0
	.db #0x00	; 0
	.db #0x00	; 0
	.db #0x00	; 0
	.db #0x00	; 0
	.db #0x00	; 0
	.db #0x00	; 0
	.db #0x00	; 0
	.db #0x00	; 0
	.db #0x00	; 0
	.db #0x00	; 0
	.db #0x00	; 0
	.db #0x00	; 0
	.db #0x00	; 0
	.db #0x00	; 0
	.db #0x00	; 0
	.db #0x00	; 0
	.db #0x00	; 0
	.db #0x18	; 24
	.db #0x18	; 24
	.db #0x34	; 52	'4'
	.db #0x24	; 36
	.db #0x34	; 52	'4'
	.db #0x24	; 36
	.db #0x34	; 52	'4'
	.db #0x24	; 36
	.db #0x34	; 52	'4'
	.db #0x24	; 36
	.db #0x34	; 52	'4'
	.db #0x24	; 36
	.db #0x34	; 52	'4'
	.db #0x24	; 36
	.db #0x34	; 52	'4'
	.db #0x24	; 36
	.db #0x34	; 52	'4'
	.db #0x24	; 36
	.db #0x7e	; 126
	.db #0x7e	; 126
	.db #0x7f	; 127
	.db #0x7f	; 127
	.db #0x81	; 129
	.db #0x81	; 129
	.db #0x9c	; 156
	.db #0x80	; 128
	.db #0xbf	; 191
	.db #0x81	; 129
	.db #0xff	; 255
	.db #0xbc	; 188
	.db #0x4b	; 75	'K'
	.db #0x4b	; 75	'K'
	.db #0x49	; 73	'I'
	.db #0x49	; 73	'I'
	.db #0x81	; 129
	.db #0x80	; 128
	.db #0x7b	; 123
	.db #0x79	; 121	'y'
	.db #0x8c	; 140
	.db #0x87	; 135
	.db #0x8f	; 143
	.db #0x87	; 135
	.db #0x7f	; 127
	.db #0x7c	; 124
	.db #0x37	; 55	'7'
	.db #0x2c	; 44
	.db #0x2f	; 47
	.db #0x3f	; 63
	.db #0x19	; 25
	.db #0x19	; 25
	.db #0x3f	; 63
	.db #0x3f	; 63
	.db #0xc0	; 192
	.db #0xc0	; 192
	.db #0xfe	; 254
	.db #0x3e	; 62
	.db #0xf1	; 241
	.db #0x9f	; 159
	.db #0xf1	; 241
	.db #0x5f	; 95
	.db #0xf9	; 249
	.db #0xef	; 239
	.db #0x29	; 41
	.db #0x3f	; 63
	.db #0xaa	; 170
	.db #0x3e	; 62
	.db #0xd4	; 212
	.db #0xf4	; 244
	.db #0xf0	; 240
	.db #0xb0	; 176
	.db #0x30	; 48	'0'
	.db #0xd0	; 208
	.db #0x88	; 136
	.db #0xf8	; 248
	.db #0xc4	; 196
	.db #0xfc	; 252
	.db #0xe2	; 226
	.db #0x3e	; 62
	.db #0x72	; 114	'r'
	.db #0xbe	; 190
	.db #0xcc	; 204
	.db #0xcc	; 204
	.db #0xf8	; 248
	.db #0xf8	; 248
	.db #0x7f	; 127
	.db #0x7f	; 127
	.db #0x81	; 129
	.db #0x81	; 129
	.db #0x9c	; 156
	.db #0x80	; 128
	.db #0xbf	; 191
	.db #0x81	; 129
	.db #0xff	; 255
	.db #0xbc	; 188
	.db #0x4b	; 75	'K'
	.db #0x4b	; 75	'K'
	.db #0x49	; 73	'I'
	.db #0x49	; 73	'I'
	.db #0x81	; 129
	.db #0x80	; 128
	.db #0x7b	; 123
	.db #0x79	; 121	'y'
	.db #0x8c	; 140
	.db #0x87	; 135
	.db #0x8f	; 143
	.db #0x87	; 135
	.db #0x7f	; 127
	.db #0x7c	; 124
	.db #0x37	; 55	'7'
	.db #0x2c	; 44
	.db #0x2f	; 47
	.db #0x3f	; 63
	.db #0x19	; 25
	.db #0x19	; 25
	.db #0x3f	; 63
	.db #0x3f	; 63
	.db #0xc0	; 192
	.db #0xc0	; 192
	.db #0xfc	; 252
	.db #0x3c	; 60
	.db #0xf2	; 242
	.db #0x9e	; 158
	.db #0xf1	; 241
	.db #0x5f	; 95
	.db #0xf9	; 249
	.db #0xef	; 239
	.db #0x29	; 41
	.db #0x3f	; 63
	.db #0xad	; 173
	.db #0x3f	; 63
	.db #0xd2	; 210
	.db #0xf2	; 242
	.db #0xf0	; 240
	.db #0xb0	; 176
	.db #0x30	; 48	'0'
	.db #0xd0	; 208
	.db #0x88	; 136
	.db #0xf8	; 248
	.db #0xc4	; 196
	.db #0xfc	; 252
	.db #0xe2	; 226
	.db #0x3e	; 62
	.db #0x72	; 114	'r'
	.db #0xbe	; 190
	.db #0xcc	; 204
	.db #0xcc	; 204
	.db #0xf8	; 248
	.db #0xf8	; 248
	.db #0x3f	; 63
	.db #0x2f	; 47
	.db #0x14	; 20
	.db #0x10	; 16
	.db #0x3f	; 63
	.db #0x2f	; 47
	.db #0x57	; 87	'W'
	.db #0x58	; 88	'X'
	.db #0x5f	; 95
	.db #0x53	; 83	'S'
	.db #0x7c	; 124
	.db #0x57	; 87	'W'
	.db #0x2c	; 44
	.db #0x37	; 55	'7'
	.db #0x74	; 116	't'
	.db #0x7f	; 127
	.db #0xa4	; 164
	.db #0xbf	; 191
	.db #0xe4	; 228
	.db #0xbf	; 191
	.db #0xec	; 236
	.db #0xbf	; 191
	.db #0x64	; 100	'd'
	.db #0x7f	; 127
	.db #0x47	; 71	'G'
	.db #0x7f	; 127
	.db #0x40	; 64
	.db #0x7f	; 127
	.db #0x80	; 128
	.db #0xff	; 255
	.db #0xff	; 255
	.db #0xff	; 255
	.db #0xe0	; 224
	.db #0xe0	; 224
	.db #0xd0	; 208
	.db #0x10	; 16
	.db #0xf8	; 248
	.db #0xe8	; 232
	.db #0xf4	; 244
	.db #0x14	; 20
	.db #0xf6	; 246
	.db #0x92	; 146
	.db #0x76	; 118	'v'
	.db #0xd2	; 210
	.db #0x76	; 118	'v'
	.db #0xce	; 206
	.db #0x4c	; 76	'L'
	.db #0xfc	; 252
	.db #0x45	; 69	'E'
	.db #0xfd	; 253
	.db #0x47	; 71	'G'
	.db #0xfd	; 253
	.db #0x67	; 103	'g'
	.db #0xfd	; 253
	.db #0x86	; 134
	.db #0xfe	; 254
	.db #0x02	; 2
	.db #0xfe	; 254
	.db #0x02	; 2
	.db #0xfe	; 254
	.db #0x01	; 1
	.db #0xff	; 255
	.db #0xff	; 255
	.db #0xff	; 255
	.db #0x7f	; 127
	.db #0x47	; 71	'G'
	.db #0x2b	; 43
	.db #0x38	; 56	'8'
	.db #0x1f	; 31
	.db #0x17	; 23
	.db #0x2f	; 47
	.db #0x28	; 40
	.db #0x6f	; 111	'o'
	.db #0x49	; 73	'I'
	.db #0x6e	; 110	'n'
	.db #0x4b	; 75	'K'
	.db #0x6e	; 110	'n'
	.db #0x73	; 115	's'
	.db #0x32	; 50	'2'
	.db #0x3f	; 63
	.db #0xa2	; 162
	.db #0xbf	; 191
	.db #0xe2	; 226
	.db #0xbf	; 191
	.db #0xe6	; 230
	.db #0xbf	; 191
	.db #0x62	; 98	'b'
	.db #0x7f	; 127
	.db #0x43	; 67	'C'
	.db #0x7f	; 127
	.db #0x40	; 64
	.db #0x7f	; 127
	.db #0x80	; 128
	.db #0xff	; 255
	.db #0xff	; 255
	.db #0xff	; 255
	.db #0xf0	; 240
	.db #0xf0	; 240
	.db #0x28	; 40
	.db #0x08	; 8
	.db #0xfc	; 252
	.db #0xf4	; 244
	.db #0xea	; 234
	.db #0x1a	; 26
	.db #0xfa	; 250
	.db #0xca	; 202
	.db #0x3e	; 62
	.db #0xea	; 234
	.db #0x34	; 52	'4'
	.db #0xec	; 236
	.db #0x2e	; 46
	.db #0xfe	; 254
	.db #0x25	; 37
	.db #0xfd	; 253
	.db #0x27	; 39
	.db #0xfd	; 253
	.db #0x37	; 55	'7'
	.db #0xfd	; 253
	.db #0x46	; 70	'F'
	.db #0xfe	; 254
	.db #0x82	; 130
	.db #0xfe	; 254
	.db #0x02	; 2
	.db #0xfe	; 254
	.db #0x01	; 1
	.db #0xff	; 255
	.db #0xff	; 255
	.db #0xff	; 255
	.db #0x0f	; 15
	.db #0x0f	; 15
	.db #0x30	; 48	'0'
	.db #0x30	; 48	'0'
	.db #0x47	; 71	'G'
	.db #0x60	; 96
	.db #0xbf	; 191
	.db #0xa0	; 160
	.db #0xbf	; 191
	.db #0x87	; 135
	.db #0xfc	; 252
	.db #0x9c	; 156
	.db #0x44	; 68	'D'
	.db #0x64	; 100	'd'
	.db #0x64	; 100	'd'
	.db #0x44	; 68	'D'
	.db #0x78	; 120	'x'
	.db #0x50	; 80	'P'
	.db #0x5f	; 95
	.db #0x7f	; 127
	.db #0x7c	; 124
	.db #0x47	; 71	'G'
	.db #0x60	; 96
	.db #0x43	; 67	'C'
	.db #0x63	; 99	'c'
	.db #0x63	; 99	'c'
	.db #0x23	; 35
	.db #0x20	; 32
	.db #0x27	; 39
	.db #0x3f	; 63
	.db #0x7f	; 127
	.db #0x43	; 67	'C'
	.db #0xc0	; 192
	.db #0xc0	; 192
	.db #0x30	; 48	'0'
	.db #0x30	; 48	'0'
	.db #0x88	; 136
	.db #0x18	; 24
	.db #0xf4	; 244
	.db #0x14	; 20
	.db #0xf4	; 244
	.db #0x84	; 132
	.db #0xfc	; 252
	.db #0xe4	; 228
	.db #0x88	; 136
	.db #0x98	; 152
	.db #0x9c	; 156
	.db #0x8c	; 140
	.db #0x3e	; 62
	.db #0x1a	; 26
	.db #0xf2	; 242
	.db #0xf2	; 242
	.db #0x4e	; 78	'N'
	.db #0xf6	; 246
	.db #0x7e	; 126
	.db #0xde	; 222
	.db #0xfa	; 250
	.db #0xd6	; 214
	.db #0xfe	; 254
	.db #0x3e	; 62
	.db #0xe8	; 232
	.db #0x88	; 136
	.db #0xf8	; 248
	.db #0xf8	; 248
	.db #0x0f	; 15
	.db #0x0f	; 15
	.db #0x30	; 48	'0'
	.db #0x30	; 48	'0'
	.db #0x47	; 71	'G'
	.db #0x60	; 96
	.db #0xbf	; 191
	.db #0xa0	; 160
	.db #0xbf	; 191
	.db #0x87	; 135
	.db #0xfc	; 252
	.db #0x9c	; 156
	.db #0x44	; 68	'D'
	.db #0x64	; 100	'd'
	.db #0x64	; 100	'd'
	.db #0x44	; 68	'D'
	.db #0x78	; 120	'x'
	.db #0x50	; 80	'P'
	.db #0x5f	; 95
	.db #0x7f	; 127
	.db #0x7c	; 124
	.db #0x47	; 71	'G'
	.db #0x60	; 96
	.db #0x43	; 67	'C'
	.db #0x63	; 99	'c'
	.db #0x63	; 99	'c'
	.db #0x23	; 35
	.db #0x20	; 32
	.db #0x27	; 39
	.db #0x3f	; 63
	.db #0x7f	; 127
	.db #0x43	; 67	'C'
	.db #0xc0	; 192
	.db #0xc0	; 192
	.db #0x30	; 48	'0'
	.db #0x30	; 48	'0'
	.db #0x88	; 136
	.db #0x18	; 24
	.db #0xf4	; 244
	.db #0x14	; 20
	.db #0xf4	; 244
	.db #0x84	; 132
	.db #0xfc	; 252
	.db #0xe4	; 228
	.db #0x88	; 136
	.db #0x98	; 152
	.db #0x9c	; 156
	.db #0x8c	; 140
	.db #0x3e	; 62
	.db #0x1a	; 26
	.db #0xf2	; 242
	.db #0xf2	; 242
	.db #0x4e	; 78	'N'
	.db #0xf6	; 246
	.db #0x7e	; 126
	.db #0xde	; 222
	.db #0xfa	; 250
	.db #0xd6	; 214
	.db #0xfe	; 254
	.db #0x3e	; 62
	.db #0xe8	; 232
	.db #0x88	; 136
	.db #0xf8	; 248
	.db #0xf8	; 248
_blankmap:
	.db #0x00	; 0
;main.c:36: void anim_walking_left()
;	---------------------------------
; Function anim_walking_left
; ---------------------------------
_anim_walking_left::
;main.c:38: set_sprite_prop(0, get_sprite_prop(0) & ~S_FLIPY);
	xor	a, a
	push	af
	inc	sp
	call	_get_sprite_prop
	inc	sp
	ld	a, e
	res	6, a
	push	af
	inc	sp
	xor	a, a
	push	af
	inc	sp
	call	_set_sprite_prop
	add	sp, #2
;main.c:39: set_sprite_prop(1, get_sprite_prop(1) & ~S_FLIPY);
	ld	a, #0x01
	push	af
	inc	sp
	call	_get_sprite_prop
	inc	sp
	ld	a, e
	res	6, a
	push	af
	inc	sp
	ld	a, #0x01
	push	af
	inc	sp
	call	_set_sprite_prop
	add	sp, #2
;main.c:41: set_sprite_prop(0, get_sprite_prop(0) & ~S_FLIPX);
	xor	a, a
	push	af
	inc	sp
	call	_get_sprite_prop
	inc	sp
	ld	a, e
	res	5, a
	push	af
	inc	sp
	xor	a, a
	push	af
	inc	sp
	call	_set_sprite_prop
	add	sp, #2
;main.c:42: set_sprite_prop(1, get_sprite_prop(1) & ~S_FLIPX);
	ld	a, #0x01
	push	af
	inc	sp
	call	_get_sprite_prop
	inc	sp
	ld	a, e
	res	5, a
	push	af
	inc	sp
	ld	a, #0x01
	push	af
	inc	sp
	call	_set_sprite_prop
	add	sp, #2
;main.c:44: if (flip == 1)
	ld	hl, #_flip
	ld	a, (hl)
	dec	a
	jr	NZ,00102$
;main.c:46: set_sprite_tile(PLAYER_SPRITE_L_ID,16);
	ld	a, #0x10
	push	af
	inc	sp
	xor	a, a
	push	af
	inc	sp
	call	_set_sprite_tile
	add	sp, #2
;main.c:47: set_sprite_tile(PLAYER_SPRITE_R_ID,18);
	ld	a, #0x12
	push	af
	inc	sp
	ld	a, #0x01
	push	af
	inc	sp
	call	_set_sprite_tile
	add	sp, #2
;main.c:48: flip = 0;
	ld	hl, #_flip
	ld	(hl), #0x00
	jr	00103$
00102$:
;main.c:52: set_sprite_tile(PLAYER_SPRITE_L_ID,20);
	ld	a, #0x14
	push	af
	inc	sp
	xor	a, a
	push	af
	inc	sp
	call	_set_sprite_tile
	add	sp, #2
;main.c:53: set_sprite_tile(PLAYER_SPRITE_R_ID,22);
	ld	a, #0x16
	push	af
	inc	sp
	ld	a, #0x01
	push	af
	inc	sp
	call	_set_sprite_tile
	add	sp, #2
;main.c:54: flip = 1;
	ld	hl, #_flip
	ld	(hl), #0x01
00103$:
;main.c:57: direction = 1;
	ld	hl, #_direction
	ld	(hl), #0x01
;main.c:58: }
	ret
;main.c:60: void anim_walking_right()
;	---------------------------------
; Function anim_walking_right
; ---------------------------------
_anim_walking_right::
;main.c:62: set_sprite_prop(0, get_sprite_prop(0) & ~S_FLIPY);
	xor	a, a
	push	af
	inc	sp
	call	_get_sprite_prop
	inc	sp
	ld	a, e
	res	6, a
	push	af
	inc	sp
	xor	a, a
	push	af
	inc	sp
	call	_set_sprite_prop
	add	sp, #2
;main.c:63: set_sprite_prop(1, get_sprite_prop(1) & ~S_FLIPY);
	ld	a, #0x01
	push	af
	inc	sp
	call	_get_sprite_prop
	inc	sp
	ld	a, e
	res	6, a
	push	af
	inc	sp
	ld	a, #0x01
	push	af
	inc	sp
	call	_set_sprite_prop
	add	sp, #2
;main.c:65: set_sprite_prop(0, get_sprite_prop(0) & ~S_FLIPX);
	xor	a, a
	push	af
	inc	sp
	call	_get_sprite_prop
	inc	sp
	ld	a, e
	res	5, a
	push	af
	inc	sp
	xor	a, a
	push	af
	inc	sp
	call	_set_sprite_prop
	add	sp, #2
;main.c:66: set_sprite_prop(1, get_sprite_prop(1) & ~S_FLIPX);
	ld	a, #0x01
	push	af
	inc	sp
	call	_get_sprite_prop
	inc	sp
	ld	a, e
	res	5, a
	push	af
	inc	sp
	ld	a, #0x01
	push	af
	inc	sp
	call	_set_sprite_prop
	add	sp, #2
;main.c:68: if (flip == 1)
	ld	hl, #_flip
	ld	a, (hl)
	dec	a
	jr	NZ,00102$
;main.c:70: set_sprite_tile(PLAYER_SPRITE_L_ID,24);
	ld	a, #0x18
	push	af
	inc	sp
	xor	a, a
	push	af
	inc	sp
	call	_set_sprite_tile
	add	sp, #2
;main.c:71: set_sprite_tile(PLAYER_SPRITE_R_ID,26);
	ld	a, #0x1a
	push	af
	inc	sp
	ld	a, #0x01
	push	af
	inc	sp
	call	_set_sprite_tile
	add	sp, #2
;main.c:72: flip = 0;
	ld	hl, #_flip
	ld	(hl), #0x00
	jr	00103$
00102$:
;main.c:76: set_sprite_tile(PLAYER_SPRITE_L_ID,28);
	ld	a, #0x1c
	push	af
	inc	sp
	xor	a, a
	push	af
	inc	sp
	call	_set_sprite_tile
	add	sp, #2
;main.c:77: set_sprite_tile(PLAYER_SPRITE_R_ID,30);
	ld	a, #0x1e
	push	af
	inc	sp
	ld	a, #0x01
	push	af
	inc	sp
	call	_set_sprite_tile
	add	sp, #2
;main.c:78: flip = 1;
	ld	hl, #_flip
	ld	(hl), #0x01
00103$:
;main.c:81: direction = 3;
	ld	hl, #_direction
	ld	(hl), #0x03
;main.c:82: }
	ret
;main.c:84: void anim_walking_up()
;	---------------------------------
; Function anim_walking_up
; ---------------------------------
_anim_walking_up::
;main.c:86: set_sprite_prop(0, get_sprite_prop(0) & ~S_FLIPY);
	xor	a, a
	push	af
	inc	sp
	call	_get_sprite_prop
	inc	sp
	ld	a, e
	res	6, a
	push	af
	inc	sp
	xor	a, a
	push	af
	inc	sp
	call	_set_sprite_prop
	add	sp, #2
;main.c:87: set_sprite_prop(1, get_sprite_prop(1) & ~S_FLIPY);
	ld	a, #0x01
	push	af
	inc	sp
	call	_get_sprite_prop
	inc	sp
	ld	a, e
	res	6, a
	push	af
	inc	sp
	ld	a, #0x01
	push	af
	inc	sp
	call	_set_sprite_prop
	add	sp, #2
;main.c:89: set_sprite_prop(0, get_sprite_prop(0) & ~S_FLIPX);
	xor	a, a
	push	af
	inc	sp
	call	_get_sprite_prop
	inc	sp
	ld	a, e
	res	5, a
	push	af
	inc	sp
	xor	a, a
	push	af
	inc	sp
	call	_set_sprite_prop
	add	sp, #2
;main.c:90: set_sprite_prop(1, get_sprite_prop(1) & ~S_FLIPX);
	ld	a, #0x01
	push	af
	inc	sp
	call	_get_sprite_prop
	inc	sp
	ld	a, e
	res	5, a
	push	af
	inc	sp
	ld	a, #0x01
	push	af
	inc	sp
	call	_set_sprite_prop
	add	sp, #2
;main.c:92: if (flip == 1)
	ld	hl, #_flip
	ld	a, (hl)
	dec	a
	jr	NZ,00102$
;main.c:94: set_sprite_tile(PLAYER_SPRITE_L_ID,0);
	xor	a, a
	push	af
	inc	sp
	xor	a, a
	push	af
	inc	sp
	call	_set_sprite_tile
	add	sp, #2
;main.c:95: set_sprite_tile(PLAYER_SPRITE_R_ID,2);
	ld	a, #0x02
	push	af
	inc	sp
	ld	a, #0x01
	push	af
	inc	sp
	call	_set_sprite_tile
	add	sp, #2
;main.c:96: flip = 0;
	ld	hl, #_flip
	ld	(hl), #0x00
	jr	00103$
00102$:
;main.c:100: set_sprite_tile(PLAYER_SPRITE_L_ID,4);
	ld	a, #0x04
	push	af
	inc	sp
	xor	a, a
	push	af
	inc	sp
	call	_set_sprite_tile
	add	sp, #2
;main.c:101: set_sprite_tile(PLAYER_SPRITE_R_ID,6);
	ld	a, #0x06
	push	af
	inc	sp
	ld	a, #0x01
	push	af
	inc	sp
	call	_set_sprite_tile
	add	sp, #2
;main.c:102: flip = 1;
	ld	hl, #_flip
	ld	(hl), #0x01
00103$:
;main.c:105: direction = 2;
	ld	hl, #_direction
	ld	(hl), #0x02
;main.c:106: }
	ret
;main.c:108: void anim_walking_down()
;	---------------------------------
; Function anim_walking_down
; ---------------------------------
_anim_walking_down::
;main.c:110: set_sprite_prop(0, get_sprite_prop(0) & ~S_FLIPY);
	xor	a, a
	push	af
	inc	sp
	call	_get_sprite_prop
	inc	sp
	ld	a, e
	res	6, a
	push	af
	inc	sp
	xor	a, a
	push	af
	inc	sp
	call	_set_sprite_prop
	add	sp, #2
;main.c:111: set_sprite_prop(1, get_sprite_prop(1) & ~S_FLIPY);
	ld	a, #0x01
	push	af
	inc	sp
	call	_get_sprite_prop
	inc	sp
	ld	a, e
	res	6, a
	push	af
	inc	sp
	ld	a, #0x01
	push	af
	inc	sp
	call	_set_sprite_prop
	add	sp, #2
;main.c:113: set_sprite_prop(0, get_sprite_prop(0) & ~S_FLIPX);
	xor	a, a
	push	af
	inc	sp
	call	_get_sprite_prop
	inc	sp
	ld	a, e
	res	5, a
	push	af
	inc	sp
	xor	a, a
	push	af
	inc	sp
	call	_set_sprite_prop
	add	sp, #2
;main.c:114: set_sprite_prop(1, get_sprite_prop(1) & ~S_FLIPX);
	ld	a, #0x01
	push	af
	inc	sp
	call	_get_sprite_prop
	inc	sp
	ld	a, e
	res	5, a
	push	af
	inc	sp
	ld	a, #0x01
	push	af
	inc	sp
	call	_set_sprite_prop
	add	sp, #2
;main.c:116: if (flip == 1)
	ld	hl, #_flip
	ld	a, (hl)
	dec	a
	jr	NZ,00102$
;main.c:118: set_sprite_tile(PLAYER_SPRITE_L_ID,8);
	ld	a, #0x08
	push	af
	inc	sp
	xor	a, a
	push	af
	inc	sp
	call	_set_sprite_tile
	add	sp, #2
;main.c:119: set_sprite_tile(PLAYER_SPRITE_R_ID,10);
	ld	a, #0x0a
	push	af
	inc	sp
	ld	a, #0x01
	push	af
	inc	sp
	call	_set_sprite_tile
	add	sp, #2
;main.c:120: flip = 0;
	ld	hl, #_flip
	ld	(hl), #0x00
	jr	00103$
00102$:
;main.c:124: set_sprite_tile(PLAYER_SPRITE_L_ID,12);
	ld	a, #0x0c
	push	af
	inc	sp
	xor	a, a
	push	af
	inc	sp
	call	_set_sprite_tile
	add	sp, #2
;main.c:125: set_sprite_tile(PLAYER_SPRITE_R_ID,14);
	ld	a, #0x0e
	push	af
	inc	sp
	ld	a, #0x01
	push	af
	inc	sp
	call	_set_sprite_tile
	add	sp, #2
;main.c:126: flip = 1;
	ld	hl, #_flip
	ld	(hl), #0x01
00103$:
;main.c:129: direction = 0;
	ld	hl, #_direction
	ld	(hl), #0x00
;main.c:130: }
	ret
;main.c:133: void main(){
;	---------------------------------
; Function main
; ---------------------------------
_main::
;main.c:137: set_bkg_data(0, 85, BackgroundTiles);
	ld	hl, #_BackgroundTiles
	push	hl
	ld	a, #0x55
	push	af
	inc	sp
	xor	a, a
	push	af
	inc	sp
	call	_set_bkg_data
	add	sp, #4
;main.c:139: counterX = 0;
	ld	hl, #_counterX
	ld	(hl), #0x00
	inc	hl
	ld	(hl), #0x00
;main.c:140: for (i = 0; i != 19; i++ )
	ld	hl, #_i
	ld	(hl), #0x00
00129$:
;main.c:142: set_bkg_tiles(0, i, 21, 1, (BackgroundMap3+counterX));
	ld	a, #<(_BackgroundMap3)
	ld	hl, #_counterX
	add	a, (hl)
	ld	c, a
	ld	a, #>(_BackgroundMap3)
	inc	hl
	adc	a, (hl)
	ld	b, a
	push	bc
	ld	a, #0x01
	push	af
	inc	sp
	ld	a, #0x15
	push	af
	inc	sp
	ld	hl, #_i
	ld	a, (hl)
	push	af
	inc	sp
	xor	a, a
	push	af
	inc	sp
	call	_set_bkg_tiles
	add	sp, #6
;main.c:143: counterX = counterX + MapSizeX;
	ld	hl, #_counterX
	ld	a, (hl)
	add	a, #0x40
	ld	(hl+), a
	ld	a, (hl)
	adc	a, #0x00
	ld	(hl), a
;main.c:140: for (i = 0; i != 19; i++ )
	ld	hl, #_i
	inc	(hl)
	ld	a, (hl)
	sub	a, #0x13
	jp	NZ,00129$
;main.c:146: set_sprite_data(0, 108, Sprites);
	ld	hl, #_Sprites
	push	hl
	ld	a, #0x6c
	push	af
	inc	sp
	xor	a, a
	push	af
	inc	sp
	call	_set_sprite_data
	add	sp, #4
;main.c:148: SPRITES_8x16;
	ld	hl, #0xff40
	ld	a, (hl)
	set	2, a
	ld	hl, #0xff40
	ld	(hl), a
;main.c:149: SHOW_SPRITES;
	ld	l, #0x40
	ld	a, (hl)
	set	1, a
	ld	hl, #0xff40
	ld	(hl), a
;main.c:150: SHOW_BKG;
	ld	l, #0x40
	ld	a, (hl)
	set	0, a
	ld	hl, #0xff40
	ld	(hl), a
;main.c:151: DISPLAY_ON;
	ld	l, #0x40
	ld	a, (hl)
	set	7, a
	ld	hl, #0xff40
	ld	(hl), a
;main.c:153: enable_interrupts();
	call	_enable_interrupts
;main.c:155: set_sprite_prop(0, get_sprite_prop(0) & ~S_FLIPX);
	xor	a, a
	push	af
	inc	sp
	call	_get_sprite_prop
	inc	sp
	ld	a, e
	res	5, a
	push	af
	inc	sp
	xor	a, a
	push	af
	inc	sp
	call	_set_sprite_prop
	add	sp, #2
;main.c:156: set_sprite_prop(1, get_sprite_prop(1) & ~S_FLIPX);
	ld	a, #0x01
	push	af
	inc	sp
	call	_get_sprite_prop
	inc	sp
	ld	a, e
	res	5, a
	push	af
	inc	sp
	ld	a, #0x01
	push	af
	inc	sp
	call	_set_sprite_prop
	add	sp, #2
;main.c:157: set_sprite_tile(PLAYER_SPRITE_L_ID,8);
	ld	a, #0x08
	push	af
	inc	sp
	xor	a, a
	push	af
	inc	sp
	call	_set_sprite_tile
	add	sp, #2
;main.c:158: set_sprite_tile(PLAYER_SPRITE_R_ID,10);
	ld	a, #0x0a
	push	af
	inc	sp
	ld	a, #0x01
	push	af
	inc	sp
	call	_set_sprite_tile
	add	sp, #2
;main.c:160: playerlocation[0] = 80;
	ld	hl, #_playerlocation
	ld	(hl), #0x50
	inc	hl
	ld	(hl), #0x00
;main.c:161: playerlocation[1] = 80;
	ld	hl, #(_playerlocation + 0x0002)
	ld	(hl), #0x50
	inc	hl
	ld	(hl), #0x00
;main.c:163: move_sprite(PLAYER_SPRITE_L_ID, playerlocation[0], playerlocation[1]);
	ld	hl, #(_playerlocation + 0x0002) + 0
	ld	b, (hl)
	ld	a, (#_playerlocation + 0)
	push	bc
	inc	sp
	push	af
	inc	sp
	xor	a, a
	push	af
	inc	sp
	call	_move_sprite
	add	sp, #3
;main.c:164: move_sprite(PLAYER_SPRITE_R_ID, playerlocation[0] + 8, playerlocation[1]);
	ld	hl, #(_playerlocation + 0x0002) + 0
	ld	b, (hl)
	ld	a, (#_playerlocation + 0)
	add	a, #0x08
	push	bc
	inc	sp
	push	af
	inc	sp
	ld	a, #0x01
	push	af
	inc	sp
	call	_move_sprite
	add	sp, #3
;main.c:166: gamerunning = 1;
	ld	hl, #_gamerunning
	ld	(hl), #0x01
;main.c:168: while(gamerunning)
00126$:
	ld	hl, #_gamerunning
	ld	a, (hl)
	or	a, a
	ret	Z
;main.c:170: performantdelay(8);
	ld	a, #0x08
	push	af
	inc	sp
	call	_performantdelay
	inc	sp
;main.c:172: if(joypad() & J_A)
	call	_joypad
;main.c:177: if((joypad() & J_LEFT) && (scrollX !=0))
	call	_joypad
	bit	1, e
	jr	Z,00105$
	ld	hl, #_scrollX + 1
	ld	a, (hl-)
	or	a, (hl)
	jr	Z,00105$
;main.c:179: scroll_bkg(-8, 0);
	xor	a, a
	push	af
	inc	sp
	ld	a, #0xf8
	push	af
	inc	sp
	call	_scroll_bkg
	add	sp, #2
;main.c:180: tileCounterX = tileCounterX-8;
	ld	hl, #_tileCounterX
	ld	a, (hl)
	add	a, #0xf8
	ld	(hl), a
;main.c:182: anim_walking_left();
	call	_anim_walking_left
00105$:
;main.c:185: if((joypad() & J_RIGHT) && (scrollX < MapSizeX-20 ))
	call	_joypad
	ld	a, e
	rrca
	jr	NC,00108$
	ld	hl, #_scrollX
	ld	a, (hl)
	sub	a, #0x2c
	inc	hl
	ld	a, (hl)
	sbc	a, #0x00
	jr	NC,00108$
;main.c:187: scroll_bkg(8, 0);
	xor	a, a
	push	af
	inc	sp
	ld	a, #0x08
	push	af
	inc	sp
	call	_scroll_bkg
	add	sp, #2
;main.c:188: tileCounterX = tileCounterX+8;
	ld	hl, #_tileCounterX
	ld	a, (hl)
	add	a, #0x08
	ld	(hl), a
;main.c:190: anim_walking_right();
	call	_anim_walking_right
00108$:
;main.c:193: if (tileCounterX == 8)
	ld	hl, #_tileCounterX
	ld	a, (hl)
	sub	a, #0x08
	jp	NZ,00112$
;main.c:195: scrollX++;
	ld	hl, #_scrollX
	inc	(hl)
	jr	NZ,00233$
	inc	hl
	inc	(hl)
00233$:
;main.c:196: tileCounterX = 0;
	ld	hl, #_tileCounterX
	ld	(hl), #0x00
;main.c:198: counterX = scrollX + 19;
	ld	hl, #_scrollX
	ld	a, (hl)
	add	a, #0x13
	ld	hl, #_counterX
	ld	(hl), a
	ld	hl, #_scrollX + 1
	ld	a, (hl)
	adc	a, #0x00
	ld	hl, #_counterX + 1
;main.c:199: tempX = counterX % 32;
	ld	(hl-), a
	ld	a, (hl)
	and	a, #0x1f
	ld	c, a
	ld	b, #0x00
	ld	hl, #_tempX
	ld	(hl), c
;main.c:200: counterY = scrollY * MapSizeY;
	ld	hl, #_scrollY
	ld	a, (hl)
	ld	hl, #_counterY
	ld	(hl), a
	ld	hl, #_scrollY + 1
	ld	a, (hl)
	ld	hl, #_counterY + 1
	ld	(hl), a
	ld	a, #0x06+1
	jr	00235$
00234$:
	dec	hl
	sla	(hl)
	inc	hl
	rl	(hl)
00235$:
	dec	a
	jr	NZ,00234$
;main.c:202: for (i = 0; i != 19; i++)
	ld	hl, #_i
	ld	(hl), #0x00
00131$:
;main.c:204: set_bkg_tiles(tempX, i + (scrollY % 32), 1, 1, (BackgroundMap3+counterX+counterY));
	ld	a, #<(_BackgroundMap3)
	ld	hl, #_counterX
	add	a, (hl)
	ld	c, a
	ld	a, #>(_BackgroundMap3)
	inc	hl
	adc	a, (hl)
	ld	b, a
	ld	a, c
	ld	hl, #_counterY
	add	a, (hl)
	ld	c, a
	ld	a, b
	inc	hl
	adc	a, (hl)
	ld	b, a
	ld	hl, #_scrollY
	ld	a, (hl)
	and	a, #0x1f
	ld	e, a
	ld	d, #0x00
	ld	a, e
	ld	hl, #_i
	add	a, (hl)
	ld	d, a
	push	bc
	ld	a, #0x01
	push	af
	inc	sp
	ld	a, #0x01
	push	af
	inc	sp
	push	de
	inc	sp
	ld	hl, #_tempX
	ld	a, (hl)
	push	af
	inc	sp
	call	_set_bkg_tiles
	add	sp, #6
;main.c:205: counterX = counterX + MapSizeX;
	ld	hl, #_counterX
	ld	a, (hl)
	add	a, #0x40
	ld	(hl+), a
	ld	a, (hl)
	adc	a, #0x00
	ld	(hl), a
;main.c:202: for (i = 0; i != 19; i++)
	ld	hl, #_i
	inc	(hl)
	ld	a, (hl)
	sub	a, #0x13
	jp	NZ,00131$
00112$:
;main.c:209: if (tileCounterX == -8)
	ld	hl, #_tileCounterX
	ld	a, (hl)
	sub	a, #0xf8
	jp	NZ,00115$
;main.c:211: scrollX--;
	ld	hl, #_scrollX + 1
	dec	hl
	ld	e, (hl)
	inc	hl
	ld	d, (hl)
	dec	de
	dec	hl
	ld	(hl), e
	inc	hl
	ld	(hl), d
;main.c:212: tileCounterX = 0;
	ld	hl, #_tileCounterX
	ld	(hl), #0x00
;main.c:214: counterX = scrollX-2;
	ld	hl, #_scrollX
	ld	a, (hl)
	add	a, #0xfe
	ld	hl, #_counterX
	ld	(hl), a
	ld	hl, #_scrollX + 1
	ld	a, (hl)
	adc	a, #0xff
	ld	hl, #_counterX + 1
;main.c:215: tempX = counterX % 32;
	ld	(hl-), a
	ld	a, (hl)
	and	a, #0x1f
	ld	c, a
	ld	b, #0x00
	ld	hl, #_tempX
	ld	(hl), c
;main.c:216: counterY = scrollY * MapSizeY;
	ld	hl, #_scrollY
	ld	a, (hl)
	ld	hl, #_counterY
	ld	(hl), a
	ld	hl, #_scrollY + 1
	ld	a, (hl)
	ld	hl, #_counterY + 1
	ld	(hl), a
	ld	a, #0x06+1
	jr	00241$
00240$:
	dec	hl
	sla	(hl)
	inc	hl
	rl	(hl)
00241$:
	dec	a
	jr	NZ,00240$
;main.c:218: for (i = 0; i != 20; i++)
	ld	hl, #_i
	ld	(hl), #0x00
00133$:
;main.c:220: set_bkg_tiles(tempX, i + (scrollY % 32), 1, 1, (BackgroundMap3+counterX+counterY));
	ld	a, #<(_BackgroundMap3)
	ld	hl, #_counterX
	add	a, (hl)
	ld	c, a
	ld	a, #>(_BackgroundMap3)
	inc	hl
	adc	a, (hl)
	ld	b, a
	ld	a, c
	ld	hl, #_counterY
	add	a, (hl)
	ld	c, a
	ld	a, b
	inc	hl
	adc	a, (hl)
	ld	b, a
	ld	hl, #_scrollY
	ld	a, (hl)
	and	a, #0x1f
	ld	e, #0x00
	ld	e,a
	ld	hl, #_i
	add	a, (hl)
	ld	d, a
	push	bc
	ld	a, #0x01
	push	af
	inc	sp
	ld	a, #0x01
	push	af
	inc	sp
	push	de
	inc	sp
	ld	hl, #_tempX
	ld	a, (hl)
	push	af
	inc	sp
	call	_set_bkg_tiles
	add	sp, #6
;main.c:221: counterX = counterX + MapSizeX;
	ld	hl, #_counterX
	ld	a, (hl)
	add	a, #0x40
	ld	(hl+), a
	ld	a, (hl)
	adc	a, #0x00
	ld	(hl), a
;main.c:218: for (i = 0; i != 20; i++)
	ld	hl, #_i
	inc	(hl)
	ld	a, (hl)
	sub	a, #0x14
	jp	NZ,00133$
00115$:
;main.c:226: if((joypad() & J_UP) && (scrollY !=0))
	call	_joypad
	bit	2, e
	jr	Z,00117$
	ld	hl, #_scrollY + 1
	ld	a, (hl-)
	or	a, (hl)
	jr	Z,00117$
;main.c:228: scroll_bkg(0, -8);
	ld	a, #0xf8
	push	af
	inc	sp
	xor	a, a
	push	af
	inc	sp
	call	_scroll_bkg
	add	sp, #2
;main.c:229: tileCounterY = tileCounterY-8;
	ld	hl, #_tileCounterY
	ld	a, (hl)
	add	a, #0xf8
	ld	(hl), a
;main.c:231: anim_walking_up();
	call	_anim_walking_up
00117$:
;main.c:234: if((joypad() & J_DOWN) && (scrollY < MapSizeY-18 ))
	call	_joypad
	bit	3, e
	jr	Z,00120$
	ld	hl, #_scrollY
	ld	a, (hl)
	sub	a, #0x2e
	inc	hl
	ld	a, (hl)
	sbc	a, #0x00
	jr	NC,00120$
;main.c:236: scroll_bkg(0, 8);
	ld	a, #0x08
	push	af
	inc	sp
	xor	a, a
	push	af
	inc	sp
	call	_scroll_bkg
	add	sp, #2
;main.c:237: tileCounterY = tileCounterY+8;
	ld	hl, #_tileCounterY
	ld	a, (hl)
	add	a, #0x08
	ld	(hl), a
;main.c:239: anim_walking_down();
	call	_anim_walking_down
00120$:
;main.c:242: if (tileCounterY == 8)
	ld	hl, #_tileCounterY
	ld	a, (hl)
	sub	a, #0x08
	jp	NZ,00123$
;main.c:244: scrollY++;
	ld	hl, #_scrollY
	inc	(hl)
	jr	NZ,00248$
	inc	hl
	inc	(hl)
00248$:
;main.c:245: tileCounterY = 0;
	ld	hl, #_tileCounterY
	ld	(hl), #0x00
;main.c:247: counterY = (scrollY + 18) * MapSizeY;
	ld	hl, #_scrollY
	ld	a, (hl)
	add	a, #0x12
	ld	c, a
	inc	hl
	ld	a, (hl)
	adc	a, #0x00
	ld	b, a
	ld	hl, #_counterY
	ld	(hl), c
	inc	hl
	ld	(hl), b
	ld	a, #0x06+1
	jr	00250$
00249$:
	dec	hl
	sla	(hl)
	inc	hl
	rl	(hl)
00250$:
	dec	a
	jr	NZ,00249$
;main.c:248: tempY = (scrollY + 18) % 32;
	ld	a, c
	and	a, #0x1f
	ld	c, a
	ld	b, #0x00
	ld	hl, #_tempY
	ld	(hl), c
;main.c:249: tempX = scrollX % 32;
	ld	hl, #_scrollX
	ld	a, (hl)
	and	a, #0x1f
	ld	c, a
	ld	b, #0x00
	ld	hl, #_tempX
	ld	(hl), c
;main.c:250: counterX = scrollX;
	ld	hl, #_scrollX
	ld	a, (hl+)
	ld	e, (hl)
	ld	hl, #_counterX
	ld	(hl+), a
	ld	(hl), e
;main.c:252: set_bkg_tiles(tempX, tempY, 22, 1, (BackgroundMap3+counterY+counterX));
	ld	a, #<(_BackgroundMap3)
	ld	hl, #_counterY
	add	a, (hl)
	ld	c, a
	ld	a, #>(_BackgroundMap3)
	inc	hl
	adc	a, (hl)
	ld	b, a
	ld	a, c
	ld	hl, #_counterX
	add	a, (hl)
	ld	c, a
	ld	a, b
	inc	hl
	adc	a, (hl)
	ld	b, a
	push	bc
	ld	a, #0x01
	push	af
	inc	sp
	ld	a, #0x16
	push	af
	inc	sp
	ld	hl, #_tempY
	ld	a, (hl)
	push	af
	inc	sp
	ld	hl, #_tempX
	ld	a, (hl)
	push	af
	inc	sp
	call	_set_bkg_tiles
	add	sp, #6
00123$:
;main.c:255: if (tileCounterY == -8)
	ld	hl, #_tileCounterY
	ld	a, (hl)
	sub	a, #0xf8
	jp	NZ,00126$
;main.c:257: scrollY--;
	ld	hl, #_scrollY + 1
	dec	hl
	ld	e, (hl)
	inc	hl
	ld	d, (hl)
	dec	de
	dec	hl
	ld	(hl), e
	inc	hl
	ld	(hl), d
;main.c:258: tileCounterY = 0;
	ld	hl, #_tileCounterY
	ld	(hl), #0x00
;main.c:260: counterY = (scrollY - 1) * MapSizeX;
	ld	hl, #_scrollY + 1
	dec	hl
	ld	c, (hl)
	inc	hl
	ld	b, (hl)
	dec	bc
	ld	hl, #_counterY
	ld	(hl), c
	inc	hl
	ld	(hl), b
	ld	a, #0x06+1
	jr	00254$
00253$:
	dec	hl
	sla	(hl)
	inc	hl
	rl	(hl)
00254$:
	dec	a
	jr	NZ,00253$
;main.c:261: tempY = (scrollY - 1) % 32;
	ld	a, c
	and	a, #0x1f
	ld	c, a
	ld	b, #0x00
	ld	hl, #_tempY
	ld	(hl), c
;main.c:262: counterX = scrollX;
	ld	hl, #_scrollX
	ld	a, (hl+)
	ld	e, (hl)
	ld	hl, #_counterX
	ld	(hl+), a
	ld	(hl), e
;main.c:263: tempX = scrollX % 32;
	ld	hl, #_scrollX
	ld	a, (hl)
	and	a, #0x1f
	ld	c, a
	ld	b, #0x00
	ld	hl, #_tempX
	ld	(hl), c
;main.c:265: set_bkg_tiles(tempX, tempY, 22, 1, (BackgroundMap3+counterY+counterX));
	ld	a, #<(_BackgroundMap3)
	ld	hl, #_counterY
	add	a, (hl)
	ld	c, a
	ld	a, #>(_BackgroundMap3)
	inc	hl
	adc	a, (hl)
	ld	b, a
	ld	a, c
	ld	hl, #_counterX
	add	a, (hl)
	ld	c, a
	ld	a, b
	inc	hl
	adc	a, (hl)
	ld	b, a
	push	bc
	ld	a, #0x01
	push	af
	inc	sp
	ld	a, #0x16
	push	af
	inc	sp
	ld	hl, #_tempY
	ld	a, (hl)
	push	af
	inc	sp
	ld	hl, #_tempX
	ld	a, (hl)
	push	af
	inc	sp
	call	_set_bkg_tiles
	add	sp, #6
;main.c:266: counterY = counterY + MapSizeY;
	ld	hl, #_counterY
	ld	a, (hl)
	add	a, #0x40
	ld	(hl+), a
	ld	a, (hl)
	adc	a, #0x00
	ld	(hl), a
	jp	00126$
;main.c:269: }
	ret
	.area _CODE
	.area _CABS (ABS)
